

Microchip MPLAB XC8 Assembler V2.41 build 20230208172133 
                                                                                               Wed Dec 13 12:52:45 2023

Microchip MPLAB XC8 C Compiler v2.41 (Free license) build 20230208172133 Og1 
     1                           	processor	18F4620
     2                           	fnconf	rparam,??,?,0
     3                           	pagewidth 120
     4                           	opt	flic
     5                           	psect	idataCOMRAM,global,class=CODE,delta=1,noexec
     6                           	psect	idataBANK0,global,class=CODE,delta=1,noexec
     7                           	psect	idataBANK1,global,class=CODE,delta=1,noexec
     8                           	psect	smallconst,global,reloc=2,class=SMALLCONST,delta=1,noexec
     9                           	psect	cinit,global,reloc=2,class=CODE,delta=1
    10                           	psect	bssCOMRAM,global,class=COMRAM,space=1,delta=1,lowdata,noexec
    11                           	psect	dataCOMRAM,global,class=COMRAM,space=1,delta=1,lowdata,noexec
    12                           	psect	bssBANK0,global,class=BANK0,space=1,delta=1,lowdata,noexec
    13                           	psect	dataBANK0,global,class=BANK0,space=1,delta=1,lowdata,noexec
    14                           	psect	dataBANK1,global,class=BANK1,space=1,delta=1,lowdata,noexec
    15                           	psect	cstackBANK0,global,class=BANK0,space=1,delta=1,lowdata,noexec
    16                           	psect	cstackCOMRAM,global,class=COMRAM,space=1,delta=1,lowdata,noexec
    17                           	psect	text0,global,reloc=2,class=CODE,delta=1
    18                           	psect	text1,global,reloc=2,class=CODE,delta=1
    19                           	psect	text2,global,reloc=2,class=CODE,delta=1
    20                           	psect	text3,global,reloc=2,class=CODE,delta=1
    21                           	psect	text4,global,reloc=2,class=CODE,delta=1
    22                           	psect	text5,global,reloc=2,class=CODE,delta=1
    23                           	psect	text6,global,reloc=2,class=CODE,delta=1
    24                           	psect	text7,global,reloc=2,class=CODE,delta=1
    25                           	psect	text8,global,reloc=2,class=CODE,delta=1
    26                           	psect	text9,global,reloc=2,class=CODE,delta=1
    27                           	psect	text10,global,reloc=2,class=CODE,delta=1,inline
    28                           	psect	text11,global,reloc=2,class=CODE,delta=1,inline
    29                           	psect	text12,global,reloc=2,class=CODE,delta=1,inline
    30                           	psect	text13,global,reloc=2,class=CODE,delta=1,inline
    31                           	psect	text14,global,reloc=2,class=CODE,delta=1,group=1
    32                           	psect	text15,global,reloc=2,class=CODE,delta=1,group=1
    33                           	psect	text16,global,reloc=2,class=CODE,delta=1,group=1
    34                           	psect	text17,global,reloc=2,class=CODE,delta=1,group=1
    35                           	psect	intcode,global,reloc=2,class=CODE,delta=1
    36                           	psect	intcode_body,global,reloc=2,class=CODE,delta=1
    37                           	psect	text19,global,reloc=2,class=CODE,delta=1
    38                           	psect	text20,global,reloc=2,class=CODE,delta=1
    39                           	psect	text21,global,reloc=2,class=CODE,delta=1
    40                           	psect	text22,global,reloc=2,class=CODE,delta=1
    41                           	psect	text23,global,reloc=2,class=CODE,delta=1
    42                           	psect	text24,global,reloc=2,class=CODE,delta=1
    43                           	psect	text25,global,reloc=2,class=CODE,delta=1
    44                           	psect	text26,global,reloc=2,class=CODE,delta=1
    45                           	psect	text27,global,reloc=2,class=CODE,delta=1
    46                           	psect	text28,global,reloc=2,class=CODE,delta=1
    47                           	psect	text29,global,reloc=2,class=CODE,delta=1
    48                           	psect	text30,global,reloc=2,class=CODE,delta=1
    49                           	psect	text31,global,reloc=2,class=CODE,delta=1
    50                           	psect	text32,global,reloc=2,class=CODE,delta=1
    51                           	psect	text33,global,reloc=2,class=CODE,delta=1
    52                           	psect	text34,global,reloc=2,class=CODE,delta=1
    53                           	psect	text35,global,reloc=2,class=CODE,delta=1
    54                           	psect	text36,global,reloc=2,class=CODE,delta=1
    55                           	psect	text37,global,reloc=2,class=CODE,delta=1
    56                           	psect	intsave_regs,global,class=BIGRAM,space=1,delta=1,noexec
    57                           	psect	text38,global,reloc=2,class=CODE,delta=1
    58                           	psect	rparam,global,class=COMRAM,space=1,delta=1,noexec
    59                           	psect	temp,global,ovrld,common,class=COMRAM,space=1,delta=1
    60                           	psect	config,global,abs,ovrld,class=CONFIG,space=4,delta=1,noexec
    61   000000                     
    62                           ; Generated 23/03/2023 GMT
    63                           ; 
    64                           ; Copyright © 2023, Microchip Technology Inc. and its subsidiaries ("Microchip")
    65                           ; All rights reserved.
    66                           ; 
    67                           ; This software is developed by Microchip Technology Inc. and its subsidiaries ("Microch
      +                          ip").
    68                           ; 
    69                           ; Redistribution and use in source and binary forms, with or without modification, are
    70                           ; permitted provided that the following conditions are met:
    71                           ; 
    72                           ;     1. Redistributions of source code must retain the above copyright notice, this lis
      +                          t of
    73                           ;        conditions and the following disclaimer.
    74                           ; 
    75                           ;     2. Redistributions in binary form must reproduce the above copyright notice, this 
      +                          list
    76                           ;        of conditions and the following disclaimer in the documentation and/or other
    77                           ;        materials provided with the distribution. Publication is not required when
    78                           ;        this file is used in an embedded application.
    79                           ; 
    80                           ;     3. Microchip's name may not be used to endorse or promote products derived from th
      +                          is
    81                           ;        software without specific prior written permission.
    82                           ; 
    83                           ; THIS SOFTWARE IS PROVIDED BY MICROCHIP "AS IS" AND ANY EXPRESS OR IMPLIED WARRANTIES,
    84                           ; INCLUDING, BUT NOT LIMITED TO, THE IMPLIED WARRANTIES OF MERCHANTABILITY AND FITNESS F
      +                          OR
    85                           ; PURPOSE ARE DISCLAIMED.  IN NO EVENT SHALL MICROCHIP BE LIABLE FOR ANY DIRECT, INDIREC
      +                          T,
    86                           ; INCIDENTAL, SPECIAL, EXEMPLARY, OR CONSEQUENTIAL DAMAGES (INCLUDING BUT NOT LIMITED TO
    87                           ; PROCUREMENT OF SUBSTITUTE GOODS OR SERVICES; LOSS OF USE, DATA OR PROFITS; OR BUSINESS
    88                           ; INTERRUPTION) HOWSOEVER CAUSED AND ON ANY THEORY OF LIABILITY, WHETHER IN CONTRACT, ST
      +                          RICT
    89                           ; LIABILITY, OR TORT (INCLUDING NEGLIGENCE OR OTHERWISE) ARISING IN ANY WAY OUT OF THE U
      +                          SE OF
    90                           ; THIS SOFTWARE, EVEN IF ADVISED OF THE POSSIBILITY OF SUCH DAMAGE.
    91                           ; 
    92                           ; 
    93                           ; Code-generator required, PIC18F4620 Definitions
    94                           ; 
    95                           ; SFR Addresses
    96   000000                     
    97                           	psect	idataCOMRAM
    98   0028D2                     __pidataCOMRAM:
    99                           	callstack 0
   100                           
   101                           ;initializer for _RB7_Flag
   102   0028D2  01                 	db	1
   103                           
   104                           ;initializer for _RB6_Flag
   105   0028D3  01                 	db	1
   106                           
   107                           ;initializer for _RB5_Flag
   108   0028D4  01                 	db	1
   109                           
   110                           ;initializer for _RB4_Flag
   111   0028D5  01                 	db	1
   112                           
   113                           ;initializer for _led1
   114   0028D6  03                 	db	3
   115                           
   116                           	psect	idataBANK0
   117   0027C0                     __pidataBANK0:
   118                           	callstack 0
   119                           
   120                           ;initializer for _port_registers
   121   0027C0  80                 	db	128
   122   0027C1  0F                 	db	15
   123   0027C2  81                 	db	129
   124   0027C3  0F                 	db	15
   125   0027C4  82                 	db	130
   126   0027C5  0F                 	db	15
   127   0027C6  83                 	db	131
   128   0027C7  0F                 	db	15
   129   0027C8  84                 	db	132
   130   0027C9  0F                 	db	15
   131                           
   132                           ;initializer for _lat_registers
   133   0027CA  89                 	db	137
   134   0027CB  0F                 	db	15
   135   0027CC  8A                 	db	138
   136   0027CD  0F                 	db	15
   137   0027CE  8B                 	db	139
   138   0027CF  0F                 	db	15
   139   0027D0  8C                 	db	140
   140   0027D1  0F                 	db	15
   141   0027D2  8D                 	db	141
   142   0027D3  0F                 	db	15
   143                           
   144                           ;initializer for _tris_registers
   145   0027D4  92                 	db	146
   146   0027D5  0F                 	db	15
   147   0027D6  93                 	db	147
   148   0027D7  0F                 	db	15
   149   0027D8  94                 	db	148
   150   0027D9  0F                 	db	15
   151   0027DA  95                 	db	149
   152   0027DB  0F                 	db	15
   153   0027DC  96                 	db	150
   154   0027DD  0F                 	db	15
   155                           
   156                           ;initializer for _lcd_2
   157   0027DE  32                 	db	50
   158   0027DF  3A                 	db	58
   159   0027E0  03                 	db	3
   160   0027E1  0B                 	db	11
   161   0027E2  13                 	db	19
   162   0027E3  1B                 	db	27
   163   0027E4  23                 	db	35
   164   0027E5  2B                 	db	43
   165   0027E6  33                 	db	51
   166   0027E7  3B                 	db	59
   167                           
   168                           ;initializer for _lcd_1
   169   0027E8  02                 	db	2
   170   0027E9  0A                 	db	10
   171   0027EA  12                 	db	18
   172   0027EB  1A                 	db	26
   173   0027EC  22                 	db	34
   174   0027ED  2A                 	db	42
   175                           
   176                           	psect	idataBANK1
   177   002790                     __pidataBANK1:
   178                           	callstack 0
   179                           
   180                           ;initializer for _keypad_btn_values
   181   002790  37                 	db	55
   182   002791  00                 	db	0
   183   002792  00                 	db	0
   184   002793  38                 	db	56
   185   002794  00                 	db	0
   186   002795  00                 	db	0
   187   002796  39                 	db	57
   188   002797  00                 	db	0
   189   002798  00                 	db	0
   190   002799  2F                 	db	47
   191   00279A  00                 	db	0
   192   00279B  00                 	db	0
   193   00279C  34                 	db	52
   194   00279D  00                 	db	0
   195   00279E  00                 	db	0
   196   00279F  35                 	db	53
   197   0027A0  00                 	db	0
   198   0027A1  00                 	db	0
   199   0027A2  36                 	db	54
   200   0027A3  00                 	db	0
   201   0027A4  00                 	db	0
   202   0027A5  2A                 	db	42
   203   0027A6  00                 	db	0
   204   0027A7  00                 	db	0
   205   0027A8  31                 	db	49
   206   0027A9  00                 	db	0
   207   0027AA  00                 	db	0
   208   0027AB  32                 	db	50
   209   0027AC  00                 	db	0
   210   0027AD  00                 	db	0
   211   0027AE  33                 	db	51
   212   0027AF  00                 	db	0
   213   0027B0  00                 	db	0
   214   0027B1  2B                 	db	43
   215   0027B2  00                 	db	0
   216   0027B3  00                 	db	0
   217   0027B4  23                 	db	35
   218   0027B5  00                 	db	0
   219   0027B6  00                 	db	0
   220   0027B7  30                 	db	48
   221   0027B8  00                 	db	0
   222   0027B9  00                 	db	0
   223   0027BA  3D                 	db	61
   224   0027BB  00                 	db	0
   225   0027BC  00                 	db	0
   226   0027BD  2D                 	db	45
   227   0027BE  00                 	db	0
   228   0027BF  00                 	db	0
   229   000000                     _SSPADD	set	4040
   230   000000                     _SSPCON2bits	set	4037
   231   000000                     _SSPBUF	set	4041
   232   000000                     _SSPSTATbits	set	4039
   233   000000                     _SSPCON1bits	set	4038
   234   000000                     _SPBRGH	set	4016
   235   000000                     _SPBRG	set	4015
   236   000000                     _TXREG	set	4013
   237   000000                     _TXSTAbits	set	4012
   238   000000                     _RCREG	set	4014
   239   000000                     _RCSTAbits	set	4011
   240   000000                     _TMR3L	set	4018
   241   000000                     _TMR3H	set	4019
   242   000000                     _TMR2	set	4044
   243   000000                     _T2CONbits	set	4042
   244   000000                     _TMR1L	set	4046
   245   000000                     _TMR1H	set	4047
   246   000000                     _T1CONbits	set	4045
   247   000000                     _TMR0L	set	4054
   248   000000                     _TMR0H	set	4055
   249   000000                     _T0CONbits	set	4053
   250   000000                     _INTCON2bits	set	4081
   251   000000                     _INTCON3bits	set	4080
   252   000000                     _EECON2	set	4007
   253   000000                     _PR2	set	4043
   254   000000                     _CCPR2H	set	4028
   255   000000                     _CCPR2L	set	4027
   256   000000                     _CCPR1H	set	4031
   257   000000                     _CCPR1L	set	4030
   258   000000                     _ADCON1bits	set	4033
   259   000000                     _ADRESL	set	4035
   260   000000                     _ADRESH	set	4036
   261   000000                     _INTCONbits	set	4082
   262   000000                     _TRISD	set	3989
   263   000000                     _TRISC	set	3988
   264   000000                     _TRISB	set	3987
   265   000000                     _TRISE	set	3990
   266   000000                     _TRISCbits	set	3988
   267   000000                     _PORTBbits	set	3969
   268   000000                     _PIE1bits	set	3997
   269   000000                     _ADCON2bits	set	4032
   270   000000                     _ADCON0bits	set	4034
   271   000000                     _PORTE	set	3972
   272   000000                     _PORTD	set	3971
   273   000000                     _PORTC	set	3970
   274   000000                     _PORTB	set	3969
   275   000000                     _PORTA	set	3968
   276   000000                     _LATA	set	3977
   277   000000                     _TRISA	set	3986
   278   000000                     _PIE2bits	set	4000
   279   000000                     _CCP1CONbits	set	4029
   280   000000                     _PIR1bits	set	3998
   281   000000                     _EECON1bits	set	4006
   282   000000                     _EEDATA	set	4008
   283   000000                     _EEADR	set	4009
   284   000000                     _EEADRH	set	4010
   285   000000                     _T3CONbits	set	4017
   286   000000                     _CCP2CONbits	set	4026
   287   000000                     _PIR2bits	set	4001
   288   000000                     _LATE	set	3981
   289   000000                     _LATD	set	3980
   290   000000                     _LATC	set	3979
   291   000000                     _LATB	set	3978
   292   000000                     _BAUDCONbits	set	4024
   293                           
   294                           	psect	smallconst
   295   001000                     __psmallconst:
   296                           	callstack 0
   297   001000  00                 	db	0
   298   001001                     STR_1:
   299   001001  2F                 	db	47
   300   001002  30                 	db	48	;'0'
   301   001003  00                 	db	0
   302   001004                     STR_2:
   303   001004  25                 	db	37
   304   001005  69                 	db	105	;'i'
   305   001006  00                 	db	0
   306   001007  00                 	db	0	; dummy byte at the end
   307   000000                     
   308                           ; #config settings
   309                           
   310                           	psect	cinit
   311   002414                     __pcinit:
   312                           	callstack 0
   313   002414                     start_initialization:
   314                           	callstack 0
   315   002414                     __initialization:
   316                           	callstack 0
   317                           
   318                           ; Initialize objects allocated to BANK1 (48 bytes)
   319                           ; load TBLPTR registers with __pidataBANK1
   320   002414  0E90               	movlw	low __pidataBANK1
   321   002416  6EF6               	movwf	tblptrl,c
   322   002418  0E27               	movlw	high __pidataBANK1
   323   00241A  6EF7               	movwf	tblptrh,c
   324   00241C  0E00               	movlw	low (__pidataBANK1 shr (0+16))
   325   00241E  6EF8               	movwf	tblptru,c
   326   002420  EE01  F000         	lfsr	0,__pdataBANK1
   327   002424  EE10 F030          	lfsr	1,48
   328   002428                     copy_data0:
   329   002428  0009               	tblrd		*+
   330   00242A  CFF5 FFEE          	movff	tablat,postinc0
   331   00242E  50E5               	movf	postdec1,w,c
   332   002430  50E1               	movf	fsr1l,w,c
   333   002432  E1FA               	bnz	copy_data0
   334                           
   335                           ; Initialize objects allocated to BANK0 (46 bytes)
   336                           ; load TBLPTR registers with __pidataBANK0
   337   002434  0EC0               	movlw	low __pidataBANK0
   338   002436  6EF6               	movwf	tblptrl,c
   339   002438  0E27               	movlw	high __pidataBANK0
   340   00243A  6EF7               	movwf	tblptrh,c
   341   00243C  0E00               	movlw	low (__pidataBANK0 shr (0+16))
   342   00243E  6EF8               	movwf	tblptru,c
   343   002440  EE00  F0AF         	lfsr	0,__pdataBANK0
   344   002444  EE10 F02E          	lfsr	1,46
   345   002448                     copy_data1:
   346   002448  0009               	tblrd		*+
   347   00244A  CFF5 FFEE          	movff	tablat,postinc0
   348   00244E  50E5               	movf	postdec1,w,c
   349   002450  50E1               	movf	fsr1l,w,c
   350   002452  E1FA               	bnz	copy_data1
   351                           
   352                           ; Initialize objects allocated to COMRAM (5 bytes)
   353                           ; load TBLPTR registers with __pidataCOMRAM
   354   002454  0ED2               	movlw	low __pidataCOMRAM
   355   002456  6EF6               	movwf	tblptrl,c
   356   002458  0E28               	movlw	high __pidataCOMRAM
   357   00245A  6EF7               	movwf	tblptrh,c
   358   00245C  0E00               	movlw	low (__pidataCOMRAM shr (0+16))
   359   00245E  6EF8               	movwf	tblptru,c
   360   002460  EE00  F077         	lfsr	0,__pdataCOMRAM
   361   002464  EE10 F005          	lfsr	1,5
   362   002468                     copy_data2:
   363   002468  0009               	tblrd		*+
   364   00246A  CFF5 FFEE          	movff	tablat,postinc0
   365   00246E  50E5               	movf	postdec1,w,c
   366   002470  50E1               	movf	fsr1l,w,c
   367   002472  E1FA               	bnz	copy_data2
   368                           
   369                           ; Clear objects allocated to BANK0 (47 bytes)
   370   002474  EE00  F080         	lfsr	0,__pbssBANK0
   371   002478  0E2F               	movlw	47
   372   00247A                     clear_0:
   373   00247A  6AEE               	clrf	postinc0,c
   374   00247C  06E8               	decf	wreg,f,c
   375   00247E  E1FD               	bnz	clear_0
   376                           
   377                           ; Clear objects allocated to COMRAM (47 bytes)
   378   002480  EE00  F048         	lfsr	0,__pbssCOMRAM
   379   002484  0E2F               	movlw	47
   380   002486                     clear_1:
   381   002486  6AEE               	clrf	postinc0,c
   382   002488  06E8               	decf	wreg,f,c
   383   00248A  E1FD               	bnz	clear_1
   384   00248C                     end_of_initialization:
   385                           	callstack 0
   386   00248C                     __end_of__initialization:
   387                           	callstack 0
   388   00248C  907C               	bcf	int$flags,0,c	;clear compiler interrupt flag (level 1)
   389   00248E  927C               	bcf	int$flags,1,c	;clear compiler interrupt flag (level 2)
   390   002490  0100               	movlb	0
   391   002492  EF3D  F013         	goto	_main	;jump to C main() function
   392                           
   393                           	psect	bssCOMRAM
   394   000048                     __pbssCOMRAM:
   395                           	callstack 0
   396   000048                     _I2C_Defualt_Interrupt_Hundeler:
   397                           	callstack 0
   398   000048                     	ds	2
   399   00004A                     _timer0_preload:
   400                           	callstack 0
   401   00004A                     	ds	2
   402   00004C                     _TMR0_Interrupt_Hundeler:
   403                           	callstack 0
   404   00004C                     	ds	2
   405   00004E                     _RB7_Interrupt_Handular_LOW:
   406                           	callstack 0
   407   00004E                     	ds	2
   408   000050                     _RB7_Interrupt_Handular_HIGH:
   409                           	callstack 0
   410   000050                     	ds	2
   411   000052                     _RB6_Interrupt_Handular_LOW:
   412                           	callstack 0
   413   000052                     	ds	2
   414   000054                     _RB6_Interrupt_Handular_HIGH:
   415                           	callstack 0
   416   000054                     	ds	2
   417   000056                     _RB5_Interrupt_Handular_LOW:
   418                           	callstack 0
   419   000056                     	ds	2
   420   000058                     _RB5_Interrupt_Handular_HIGH:
   421                           	callstack 0
   422   000058                     	ds	2
   423   00005A                     _RB4_Interrupt_Handular_LOW:
   424                           	callstack 0
   425   00005A                     	ds	2
   426   00005C                     _RB4_Interrupt_Handular_HIGH:
   427                           	callstack 0
   428   00005C                     	ds	2
   429   00005E                     _INT2_Interrupt_Handular:
   430                           	callstack 0
   431   00005E                     	ds	2
   432   000060                     _INT1_Interrupt_Handular:
   433                           	callstack 0
   434   000060                     	ds	2
   435   000062                     _INT0_Interrupt_Handular:
   436                           	callstack 0
   437   000062                     	ds	2
   438   000064                     CCP1_Compare_Mode_Set_Value@F3148:
   439                           	callstack 0
   440   000064                     	ds	2
   441   000066                     CCP_Captured_Mode_Read_Value@F3127:
   442                           	callstack 0
   443   000066                     	ds	2
   444   000068                     _CCP2_Interrupt_Hundeler:
   445                           	callstack 0
   446   000068                     	ds	2
   447   00006A                     _CCP1_Interrupt_Hundeler:
   448                           	callstack 0
   449   00006A                     	ds	2
   450   00006C                     _ADC_Interrupt_Handular:
   451                           	callstack 0
   452   00006C                     	ds	2
   453   00006E                     _slave2_data:
   454                           	callstack 0
   455   00006E                     	ds	1
   456   00006F                     _timer2_preloaded:
   457                           	callstack 0
   458   00006F                     	ds	1
   459   000070                     Relay_Turn_OFF@F3052:
   460                           	callstack 0
   461   000070                     	ds	1
   462   000071                     Relay_Turn_ON@F3047:
   463                           	callstack 0
   464   000071                     	ds	1
   465   000072                     Relay_Initialize@F3042:
   466                           	callstack 0
   467   000072                     	ds	1
   468   000073                     led_toggle@F3063:
   469                           	callstack 0
   470   000073                     	ds	1
   471   000074                     led_turn_off@F3058:
   472                           	callstack 0
   473   000074                     	ds	1
   474   000075                     led_turn_on@F3053:
   475                           	callstack 0
   476   000075                     	ds	1
   477   000076                     led_initialize@F3048:
   478                           	callstack 0
   479   000076                     	ds	1
   480                           
   481                           	psect	dataCOMRAM
   482   000077                     __pdataCOMRAM:
   483                           	callstack 0
   484   000077                     _RB7_Flag:
   485                           	callstack 0
   486   000077                     	ds	1
   487   000078                     _RB6_Flag:
   488                           	callstack 0
   489   000078                     	ds	1
   490   000079                     _RB5_Flag:
   491                           	callstack 0
   492   000079                     	ds	1
   493   00007A                     _RB4_Flag:
   494                           	callstack 0
   495   00007A                     	ds	1
   496   00007B                     _led1:
   497                           	callstack 0
   498   00007B                     	ds	1
   499                           
   500                           	psect	bssBANK0
   501   000080                     __pbssBANK0:
   502                           	callstack 0
   503   000080                     	ds	6
   504   000086                     _timer3_preload:
   505                           	callstack 0
   506   000086                     	ds	4
   507   00008A                     _timer1_preload:
   508                           	callstack 0
   509   00008A                     	ds	4
   510   00008E                     _I2c_Receive_Overflow_Interrupt_Hundeler:
   511                           	callstack 0
   512   00008E                     	ds	2
   513   000090                     _I2c_Write_Collision_Interrupt_Hundeler:
   514                           	callstack 0
   515   000090                     	ds	2
   516   000092                     _EUSART_Overrun_error_Interrupt_Hundeler:
   517                           	callstack 0
   518   000092                     	ds	2
   519   000094                     _EUSART_Framig_error_Interrupt_Hundeler:
   520                           	callstack 0
   521   000094                     	ds	2
   522   000096                     _EUSART_RX_Interrupt_Hundeler:
   523                           	callstack 0
   524   000096                     	ds	2
   525   000098                     _EUSART_TX_Interrupt_Hundeler:
   526                           	callstack 0
   527   000098                     	ds	2
   528   00009A                     _TMR3_Interrupt_Hundeler:
   529                           	callstack 0
   530   00009A                     	ds	2
   531   00009C                     _TMR2_Interrupt_Hundeler:
   532                           	callstack 0
   533   00009C                     	ds	2
   534   00009E                     _TMR1_Interrupt_Hundeler:
   535                           	callstack 0
   536   00009E                     	ds	2
   537   0000A0                     _i2c_obj:
   538                           	callstack 0
   539   0000A0                     	ds	15
   540                           
   541                           	psect	dataBANK0
   542   0000AF                     __pdataBANK0:
   543                           	callstack 0
   544   0000AF                     _port_registers:
   545                           	callstack 0
   546   0000AF                     	ds	10
   547   0000B9                     _lat_registers:
   548                           	callstack 0
   549   0000B9                     	ds	10
   550   0000C3                     _tris_registers:
   551                           	callstack 0
   552   0000C3                     	ds	10
   553   0000CD                     _lcd_2:
   554                           	callstack 0
   555   0000CD                     	ds	10
   556   0000D7                     _lcd_1:
   557                           	callstack 0
   558   0000D7                     	ds	6
   559                           
   560                           	psect	dataBANK1
   561   000100                     __pdataBANK1:
   562                           	callstack 0
   563   000100                     _keypad_btn_values:
   564                           	callstack 0
   565   000100                     	ds	48
   566                           
   567                           	psect	cstackBANK0
   568   0000DD                     __pcstackBANK0:
   569                           	callstack 0
   570   0000DD                     MSSP_I2C_Init@i2c_obj:
   571                           	callstack 0
   572                           
   573                           ; 2 bytes @ 0x0
   574   0000DD                     	ds	2
   575   0000DF                     MSSP_I2C_Init@ret:
   576                           	callstack 0
   577                           
   578                           ; 1 bytes @ 0x2
   579   0000DF                     	ds	1
   580                           
   581                           	psect	cstackCOMRAM
   582   000001                     __pcstackCOMRAM:
   583                           	callstack 0
   584   000001                     RB4_ISR@source:
   585                           	callstack 0
   586   000001                     RB5_ISR@source:
   587                           	callstack 0
   588   000001                     RB6_ISR@source:
   589                           	callstack 0
   590   000001                     RB7_ISR@source:
   591                           	callstack 0
   592                           
   593                           ; 1 bytes @ 0x0
   594   000001                     	ds	1
   595   000002                     ??_Interrupt_Manager:
   596                           
   597                           ; 1 bytes @ 0x1
   598   000002                     	ds	2
   599   000004                     ?___xxtofl:
   600                           	callstack 0
   601   000004                     gpio_pin_direction_intialize@pin_config:
   602                           	callstack 0
   603   000004                     gpio_pin_write_logic@pin_config:
   604                           	callstack 0
   605   000004                     gpio_pin_toggle_logic@pin_config:
   606                           	callstack 0
   607   000004                     MSSP_I2C_Slave_CFG@i2c_obj:
   608                           	callstack 0
   609   000004                     MSSP_I2C_Interrupt_Configuration@i2c_obj:
   610                           	callstack 0
   611   000004                     ___xxtofl@val:
   612                           	callstack 0
   613                           
   614                           ; 4 bytes @ 0x3
   615   000004                     	ds	2
   616   000006                     ??_gpio_pin_direction_intialize:
   617   000006                     ??_gpio_pin_toggle_logic:
   618   000006                     ??_MSSP_I2C_Slave_CFG:
   619   000006                     gpio_pin_write_logic@logic:
   620                           	callstack 0
   621                           
   622                           ; 1 bytes @ 0x5
   623   000006                     	ds	1
   624   000007                     ??_gpio_pin_write_logic:
   625                           
   626                           ; 1 bytes @ 0x6
   627   000007                     	ds	1
   628   000008                     ??___xxtofl:
   629                           
   630                           ; 1 bytes @ 0x7
   631   000008                     	ds	3
   632   00000B                     led_toggle@led:
   633                           	callstack 0
   634                           
   635                           ; 2 bytes @ 0xA
   636   00000B                     	ds	1
   637   00000C                     gpio_pin_direction_intialize@ret:
   638                           	callstack 0
   639   00000C                     ___xxtofl@sign:
   640                           	callstack 0
   641                           
   642                           ; 1 bytes @ 0xB
   643   00000C                     	ds	1
   644   00000D                     ??_led_toggle:
   645   00000D                     gpio_pin_write_logic@ret:
   646                           	callstack 0
   647   00000D                     ___xxtofl@exp:
   648                           	callstack 0
   649                           
   650                           ; 1 bytes @ 0xC
   651   00000D                     	ds	1
   652   00000E                     led_toggle@ret:
   653                           	callstack 0
   654   00000E                     led_turn_off@led:
   655                           	callstack 0
   656   00000E                     gpio_pin_intialize@pin_config:
   657                           	callstack 0
   658   00000E                     ___xxtofl@arg:
   659                           	callstack 0
   660                           
   661                           ; 4 bytes @ 0xD
   662   00000E                     	ds	1
   663   00000F                     led_toggle@pin_obj:
   664                           	callstack 0
   665                           
   666                           ; 1 bytes @ 0xE
   667   00000F                     	ds	1
   668   000010                     ??_gpio_pin_intialize:
   669   000010                     ??_led_turn_off:
   670                           
   671                           ; 1 bytes @ 0xF
   672   000010                     	ds	1
   673   000011                     led_turn_off@ret:
   674                           	callstack 0
   675   000011                     gpio_pin_intialize@ret:
   676                           	callstack 0
   677                           
   678                           ; 1 bytes @ 0x10
   679   000011                     	ds	1
   680   000012                     ?___fldiv:
   681                           	callstack 0
   682   000012                     led_turn_off@pin_obj:
   683                           	callstack 0
   684   000012                     led_initialize@led:
   685                           	callstack 0
   686   000012                     ___fldiv@b:
   687                           	callstack 0
   688                           
   689                           ; 4 bytes @ 0x11
   690   000012                     	ds	2
   691   000014                     ??_led_initialize:
   692                           
   693                           ; 1 bytes @ 0x13
   694   000014                     	ds	1
   695   000015                     led_initialize@ret:
   696                           	callstack 0
   697                           
   698                           ; 1 bytes @ 0x14
   699   000015                     	ds	1
   700   000016                     led_initialize@pin_obj:
   701                           	callstack 0
   702   000016                     ___fldiv@a:
   703                           	callstack 0
   704                           
   705                           ; 4 bytes @ 0x15
   706   000016                     	ds	4
   707   00001A                     ??___fldiv:
   708                           
   709                           ; 1 bytes @ 0x19
   710   00001A                     	ds	4
   711   00001E                     ___fldiv@rem:
   712                           	callstack 0
   713                           
   714                           ; 4 bytes @ 0x1D
   715   00001E                     	ds	4
   716   000022                     ___fldiv@sign:
   717                           	callstack 0
   718                           
   719                           ; 1 bytes @ 0x21
   720   000022                     	ds	1
   721   000023                     ___fldiv@new_exp:
   722                           	callstack 0
   723                           
   724                           ; 2 bytes @ 0x22
   725   000023                     	ds	2
   726   000025                     ___fldiv@grs:
   727                           	callstack 0
   728                           
   729                           ; 4 bytes @ 0x24
   730   000025                     	ds	4
   731   000029                     ___fldiv@bexp:
   732                           	callstack 0
   733                           
   734                           ; 1 bytes @ 0x28
   735   000029                     	ds	1
   736   00002A                     ___fldiv@aexp:
   737                           	callstack 0
   738                           
   739                           ; 1 bytes @ 0x29
   740   00002A                     	ds	1
   741   00002B                     ?___fladd:
   742                           	callstack 0
   743   00002B                     ___fladd@b:
   744                           	callstack 0
   745                           
   746                           ; 4 bytes @ 0x2A
   747   00002B                     	ds	4
   748   00002F                     ___fladd@a:
   749                           	callstack 0
   750                           
   751                           ; 4 bytes @ 0x2E
   752   00002F                     	ds	4
   753   000033                     ??___fladd:
   754                           
   755                           ; 1 bytes @ 0x32
   756   000033                     	ds	4
   757   000037                     ___fladd@signs:
   758                           	callstack 0
   759                           
   760                           ; 1 bytes @ 0x36
   761   000037                     	ds	1
   762   000038                     ___fladd@aexp:
   763                           	callstack 0
   764                           
   765                           ; 1 bytes @ 0x37
   766   000038                     	ds	1
   767   000039                     ___fladd@bexp:
   768                           	callstack 0
   769                           
   770                           ; 1 bytes @ 0x38
   771   000039                     	ds	1
   772   00003A                     ___fladd@grs:
   773                           	callstack 0
   774                           
   775                           ; 1 bytes @ 0x39
   776   00003A                     	ds	1
   777   00003B                     ?___fltol:
   778                           	callstack 0
   779   00003B                     ___fltol@f1:
   780                           	callstack 0
   781                           
   782                           ; 4 bytes @ 0x3A
   783   00003B                     	ds	4
   784   00003F                     ??___fltol:
   785                           
   786                           ; 1 bytes @ 0x3E
   787   00003F                     	ds	4
   788   000043                     ___fltol@sign1:
   789                           	callstack 0
   790                           
   791                           ; 1 bytes @ 0x42
   792   000043                     	ds	1
   793   000044                     ___fltol@exp1:
   794                           	callstack 0
   795                           
   796                           ; 1 bytes @ 0x43
   797   000044                     	ds	1
   798   000045                     MSSP_I2C_Clock_CFG@i2c_obj:
   799                           	callstack 0
   800                           
   801                           ; 2 bytes @ 0x44
   802   000045                     	ds	2
   803   000047                     ??_MSSP_I2C_Clock_CFG:
   804                           
   805                           ; 1 bytes @ 0x46
   806   000047                     	ds	1
   807   000048                     
   808                           ; 1 bytes @ 0x47
   809 ;;
   810 ;;Main: autosize = 0, tempsize = 0, incstack = 0, save=0
   811 ;;
   812 ;; *************** function _main *****************
   813 ;; Defined at:
   814 ;;		line 42 in file "application.c"
   815 ;; Parameters:    Size  Location     Type
   816 ;;		None
   817 ;; Auto vars:     Size  Location     Type
   818 ;;  ret             1    0        unsigned char 
   819 ;; Return value:  Size  Location     Type
   820 ;;                  2  1522[None  ] int 
   821 ;; Registers used:
   822 ;;		wreg, fsr2l, fsr2h, status,2, status,0, prodl, prodh, cstack
   823 ;; Tracked objects:
   824 ;;		On entry : 0/0
   825 ;;		On exit  : 0/0
   826 ;;		Unchanged: 0/0
   827 ;; Data sizes:     COMRAM   BANK0   BANK1   BANK2   BANK3   BANK4   BANK5   BANK6   BANK7   BANK8   BANK9  BANK10  BANK1
      +1  BANK12  BANK13  BANK14  BANK15
   828 ;;      Params:         0       0       0       0       0       0       0       0       0       0       0       0       
      +0       0       0       0       0
   829 ;;      Locals:         0       0       0       0       0       0       0       0       0       0       0       0       
      +0       0       0       0       0
   830 ;;      Temps:          0       0       0       0       0       0       0       0       0       0       0       0       
      +0       0       0       0       0
   831 ;;      Totals:         0       0       0       0       0       0       0       0       0       0       0       0       
      +0       0       0       0       0
   832 ;;Total ram usage:        0 bytes
   833 ;; Hardware stack levels required when called: 7
   834 ;; This function calls:
   835 ;;		_I2C_init
   836 ;;		_led_initialize
   837 ;;		_led_toggle
   838 ;;		_led_turn_off
   839 ;; This function is called by:
   840 ;;		Startup code after reset
   841 ;; This function uses a non-reentrant model
   842 ;;
   843                           
   844                           	psect	text0
   845   00267A                     __ptext0:
   846                           	callstack 0
   847   00267A                     _main:
   848                           	callstack 24
   849   00267A                     
   850                           ;application.c: 44: I2C_init();
   851   00267A  ECAC  F013         	call	_I2C_init	;wreg free
   852   00267E  0E7B               	movlw	low _led1
   853   002680  6E12               	movwf	led_initialize@led^0,c
   854   002682  0E00               	movlw	high _led1
   855   002684  6E13               	movwf	(led_initialize@led+1)^0,c
   856   002686  ECC9  F012         	call	_led_initialize	;wreg free
   857   00268A                     l8121:
   858                           
   859                           ;application.c: 47:     if(slave2_data == 'b'){
   860   00268A  0E62               	movlw	98
   861   00268C  186E               	xorwf	_slave2_data^0,w,c	;volatile
   862   00268E  A4D8               	btfss	status,2,c
   863   002690  EF4C  F013         	goto	u8241
   864   002694  EF4E  F013         	goto	u8240
   865   002698                     u8241:
   866   002698  EF56  F013         	goto	l8125
   867   00269C                     u8240:
   868   00269C  0E7B               	movlw	low _led1
   869   00269E  6E0B               	movwf	led_toggle@led^0,c
   870   0026A0  0E00               	movlw	high _led1
   871   0026A2  6E0C               	movwf	(led_toggle@led+1)^0,c
   872   0026A4  EC8B  F012         	call	_led_toggle	;wreg free
   873                           
   874                           ;application.c: 49:     }
   875   0026A8  EF45  F013         	goto	l8121
   876   0026AC                     l8125:
   877   0026AC  0E64               	movlw	100
   878   0026AE  186E               	xorwf	_slave2_data^0,w,c	;volatile
   879   0026B0  A4D8               	btfss	status,2,c
   880   0026B2  EF5D  F013         	goto	u8251
   881   0026B6  EF5F  F013         	goto	u8250
   882   0026BA                     u8251:
   883   0026BA  EF45  F013         	goto	l8121
   884   0026BE                     u8250:
   885   0026BE  0E7B               	movlw	low _led1
   886   0026C0  6E0E               	movwf	led_turn_off@led^0,c
   887   0026C2  0E00               	movlw	high _led1
   888   0026C4  6E0F               	movwf	(led_turn_off@led+1)^0,c
   889   0026C6  EC4B  F012         	call	_led_turn_off	;wreg free
   890   0026CA  EF45  F013         	goto	l8121
   891   0026CE  EF07  F000         	goto	start
   892   0026D2                     __end_of_main:
   893                           	callstack 0
   894                           
   895 ;; *************** function _led_turn_off *****************
   896 ;; Defined at:
   897 ;;		line 52 in file "ECU_Layer/LED/ecu_led.c"
   898 ;; Parameters:    Size  Location     Type
   899 ;;  led             2   13[COMRAM] PTR const struct .
   900 ;;		 -> led1(1), 
   901 ;; Auto vars:     Size  Location     Type
   902 ;;  pin_obj         1   17[COMRAM] struct .
   903 ;;  ret             1   16[COMRAM] unsigned char 
   904 ;; Return value:  Size  Location     Type
   905 ;;                  1    wreg      unsigned char 
   906 ;; Registers used:
   907 ;;		wreg, fsr2l, fsr2h, status,2, status,0, prodl, prodh, cstack
   908 ;; Tracked objects:
   909 ;;		On entry : 0/0
   910 ;;		On exit  : 0/0
   911 ;;		Unchanged: 0/0
   912 ;; Data sizes:     COMRAM   BANK0   BANK1   BANK2   BANK3   BANK4   BANK5   BANK6   BANK7   BANK8   BANK9  BANK10  BANK1
      +1  BANK12  BANK13  BANK14  BANK15
   913 ;;      Params:         2       0       0       0       0       0       0       0       0       0       0       0       
      +0       0       0       0       0
   914 ;;      Locals:         2       0       0       0       0       0       0       0       0       0       0       0       
      +0       0       0       0       0
   915 ;;      Temps:          1       0       0       0       0       0       0       0       0       0       0       0       
      +0       0       0       0       0
   916 ;;      Totals:         5       0       0       0       0       0       0       0       0       0       0       0       
      +0       0       0       0       0
   917 ;;Total ram usage:        5 bytes
   918 ;; Hardware stack levels used: 1
   919 ;; Hardware stack levels required when called: 4
   920 ;; This function calls:
   921 ;;		_gpio_pin_write_logic
   922 ;; This function is called by:
   923 ;;		_main
   924 ;; This function uses a non-reentrant model
   925 ;;
   926                           
   927                           	psect	text1
   928   002496                     __ptext1:
   929                           	callstack 0
   930   002496                     _led_turn_off:
   931                           	callstack 26
   932   002496                     
   933                           ;ECU_Layer/LED/ecu_led.c: 53: Std_ReturnType ret = (Std_ReturnType)0x01;
   934   002496  0E01               	movlw	1
   935   002498  6E11               	movwf	led_turn_off@ret^0,c
   936   00249A                     
   937                           ;ECU_Layer/LED/ecu_led.c: 54: if(led == ((void*)0)){
   938   00249A  500E               	movf	led_turn_off@led^0,w,c
   939   00249C  100F               	iorwf	(led_turn_off@led+1)^0,w,c
   940   00249E  A4D8               	btfss	status,2,c
   941   0024A0  EF54  F012         	goto	u5451
   942   0024A4  EF56  F012         	goto	u5450
   943   0024A8                     u5451:
   944   0024A8  EF5A  F012         	goto	l263
   945   0024AC                     u5450:
   946   0024AC                     
   947                           ;ECU_Layer/LED/ecu_led.c: 55:    ret = (Std_ReturnType)0x00;
   948   0024AC  0E00               	movlw	0
   949   0024AE  6E11               	movwf	led_turn_off@ret^0,c
   950                           
   951                           ;ECU_Layer/LED/ecu_led.c: 56: }
   952   0024B0  EF89  F012         	goto	l6229
   953   0024B4                     l263:
   954                           
   955                           ;ECU_Layer/LED/ecu_led.c: 58:      pin_config_t pin_obj = {.port = led->Port_Name,
   956   0024B4  C074  F012         	movff	led_turn_off@F3058,led_turn_off@pin_obj
   957   0024B8  C00E  FFD9         	movff	led_turn_off@led,fsr2l
   958   0024BC  C00F  FFDA         	movff	led_turn_off@led+1,fsr2h
   959   0024C0  50DF               	movf	223,w,c
   960   0024C2  0B0F               	andlw	15
   961   0024C4  6E10               	movwf	??_led_turn_off^0,c
   962   0024C6  5012               	movf	led_turn_off@pin_obj^0,w,c
   963   0024C8  1810               	xorwf	??_led_turn_off^0,w,c
   964   0024CA  0BF8               	andlw	-8
   965   0024CC  1810               	xorwf	??_led_turn_off^0,w,c
   966   0024CE  6E12               	movwf	led_turn_off@pin_obj^0,c
   967   0024D0  C00E  FFD9         	movff	led_turn_off@led,fsr2l
   968   0024D4  C00F  FFDA         	movff	led_turn_off@led+1,fsr2h
   969   0024D8  38DF               	swapf	223,w,c
   970   0024DA  0B07               	andlw	7
   971   0024DC  6E10               	movwf	??_led_turn_off^0,c
   972   0024DE  4610               	rlncf	??_led_turn_off^0,f,c
   973   0024E0  4610               	rlncf	??_led_turn_off^0,f,c
   974   0024E2  4610               	rlncf	??_led_turn_off^0,f,c
   975   0024E4  5012               	movf	led_turn_off@pin_obj^0,w,c
   976   0024E6  1810               	xorwf	??_led_turn_off^0,w,c
   977   0024E8  0BC7               	andlw	-57
   978   0024EA  1810               	xorwf	??_led_turn_off^0,w,c
   979   0024EC  6E12               	movwf	led_turn_off@pin_obj^0,c
   980   0024EE  9C12               	bcf	led_turn_off@pin_obj^0,6,c
   981   0024F0  C00E  FFD9         	movff	led_turn_off@led,fsr2l
   982   0024F4  C00F  FFDA         	movff	led_turn_off@led+1,fsr2h
   983   0024F8  AEDF               	btfss	indf2,7,c
   984   0024FA  D002               	bra	u5465
   985   0024FC  8E12               	bsf	led_turn_off@pin_obj^0,7,c
   986   0024FE  D001               	bra	u5467
   987   002500                     u5465:
   988   002500  9E12               	bcf	led_turn_off@pin_obj^0,7,c
   989   002502                     u5467:
   990   002502                     
   991                           ;ECU_Layer/LED/ecu_led.c: 63:       gpio_pin_write_logic(&pin_obj, LOW);
   992   002502  0E12               	movlw	low led_turn_off@pin_obj
   993   002504  6E04               	movwf	gpio_pin_write_logic@pin_config^0,c
   994   002506  0E00               	movlw	high led_turn_off@pin_obj
   995   002508  6E05               	movwf	(gpio_pin_write_logic@pin_config+1)^0,c
   996   00250A  0E00               	movlw	0
   997   00250C  6E06               	movwf	gpio_pin_write_logic@logic^0,c
   998   00250E  EC53  F010         	call	_gpio_pin_write_logic	;wreg free
   999   002512                     l6229:
  1000                           
  1001                           ;ECU_Layer/LED/ecu_led.c: 65: return ret;
  1002   002512  5011               	movf	led_turn_off@ret^0,w,c
  1003   002514  0012               	return		;funcret
  1004   002516                     __end_of_led_turn_off:
  1005                           	callstack 0
  1006                           
  1007 ;; *************** function _led_toggle *****************
  1008 ;; Defined at:
  1009 ;;		line 74 in file "ECU_Layer/LED/ecu_led.c"
  1010 ;; Parameters:    Size  Location     Type
  1011 ;;  led             2   10[COMRAM] PTR const struct .
  1012 ;;		 -> led1(1), 
  1013 ;; Auto vars:     Size  Location     Type
  1014 ;;  pin_obj         1   14[COMRAM] struct .
  1015 ;;  ret             1   13[COMRAM] unsigned char 
  1016 ;; Return value:  Size  Location     Type
  1017 ;;                  1    wreg      unsigned char 
  1018 ;; Registers used:
  1019 ;;		wreg, fsr2l, fsr2h, status,2, status,0, prodl, prodh, cstack
  1020 ;; Tracked objects:
  1021 ;;		On entry : 0/0
  1022 ;;		On exit  : 0/0
  1023 ;;		Unchanged: 0/0
  1024 ;; Data sizes:     COMRAM   BANK0   BANK1   BANK2   BANK3   BANK4   BANK5   BANK6   BANK7   BANK8   BANK9  BANK10  BANK1
      +1  BANK12  BANK13  BANK14  BANK15
  1025 ;;      Params:         2       0       0       0       0       0       0       0       0       0       0       0       
      +0       0       0       0       0
  1026 ;;      Locals:         2       0       0       0       0       0       0       0       0       0       0       0       
      +0       0       0       0       0
  1027 ;;      Temps:          1       0       0       0       0       0       0       0       0       0       0       0       
      +0       0       0       0       0
  1028 ;;      Totals:         5       0       0       0       0       0       0       0       0       0       0       0       
      +0       0       0       0       0
  1029 ;;Total ram usage:        5 bytes
  1030 ;; Hardware stack levels used: 1
  1031 ;; Hardware stack levels required when called: 4
  1032 ;; This function calls:
  1033 ;;		_gpio_pin_toggle_logic
  1034 ;; This function is called by:
  1035 ;;		_main
  1036 ;; This function uses a non-reentrant model
  1037 ;;
  1038                           
  1039                           	psect	text2
  1040   002516                     __ptext2:
  1041                           	callstack 0
  1042   002516                     _led_toggle:
  1043                           	callstack 26
  1044   002516                     
  1045                           ;ECU_Layer/LED/ecu_led.c: 75: Std_ReturnType ret = (Std_ReturnType)0x01;
  1046   002516  0E01               	movlw	1
  1047   002518  6E0E               	movwf	led_toggle@ret^0,c
  1048   00251A                     
  1049                           ;ECU_Layer/LED/ecu_led.c: 76: if(led == ((void*)0)){
  1050   00251A  500B               	movf	led_toggle@led^0,w,c
  1051   00251C  100C               	iorwf	(led_toggle@led+1)^0,w,c
  1052   00251E  A4D8               	btfss	status,2,c
  1053   002520  EF94  F012         	goto	u5471
  1054   002524  EF96  F012         	goto	u5470
  1055   002528                     u5471:
  1056   002528  EF9A  F012         	goto	l270
  1057   00252C                     u5470:
  1058   00252C                     
  1059                           ;ECU_Layer/LED/ecu_led.c: 77:    ret = (Std_ReturnType)0x00;
  1060   00252C  0E00               	movlw	0
  1061   00252E  6E0E               	movwf	led_toggle@ret^0,c
  1062                           
  1063                           ;ECU_Layer/LED/ecu_led.c: 78: }
  1064   002530  EFC7  F012         	goto	l6247
  1065   002534                     l270:
  1066                           
  1067                           ;ECU_Layer/LED/ecu_led.c: 80:      pin_config_t pin_obj = {.port = led->Port_Name,
  1068   002534  C073  F00F         	movff	led_toggle@F3063,led_toggle@pin_obj
  1069   002538  C00B  FFD9         	movff	led_toggle@led,fsr2l
  1070   00253C  C00C  FFDA         	movff	led_toggle@led+1,fsr2h
  1071   002540  50DF               	movf	223,w,c
  1072   002542  0B0F               	andlw	15
  1073   002544  6E0D               	movwf	??_led_toggle^0,c
  1074   002546  500F               	movf	led_toggle@pin_obj^0,w,c
  1075   002548  180D               	xorwf	??_led_toggle^0,w,c
  1076   00254A  0BF8               	andlw	-8
  1077   00254C  180D               	xorwf	??_led_toggle^0,w,c
  1078   00254E  6E0F               	movwf	led_toggle@pin_obj^0,c
  1079   002550  C00B  FFD9         	movff	led_toggle@led,fsr2l
  1080   002554  C00C  FFDA         	movff	led_toggle@led+1,fsr2h
  1081   002558  38DF               	swapf	223,w,c
  1082   00255A  0B07               	andlw	7
  1083   00255C  6E0D               	movwf	??_led_toggle^0,c
  1084   00255E  460D               	rlncf	??_led_toggle^0,f,c
  1085   002560  460D               	rlncf	??_led_toggle^0,f,c
  1086   002562  460D               	rlncf	??_led_toggle^0,f,c
  1087   002564  500F               	movf	led_toggle@pin_obj^0,w,c
  1088   002566  180D               	xorwf	??_led_toggle^0,w,c
  1089   002568  0BC7               	andlw	-57
  1090   00256A  180D               	xorwf	??_led_toggle^0,w,c
  1091   00256C  6E0F               	movwf	led_toggle@pin_obj^0,c
  1092   00256E  9C0F               	bcf	led_toggle@pin_obj^0,6,c
  1093   002570  C00B  FFD9         	movff	led_toggle@led,fsr2l
  1094   002574  C00C  FFDA         	movff	led_toggle@led+1,fsr2h
  1095   002578  AEDF               	btfss	indf2,7,c
  1096   00257A  D002               	bra	u5485
  1097   00257C  8E0F               	bsf	led_toggle@pin_obj^0,7,c
  1098   00257E  D001               	bra	u5487
  1099   002580                     u5485:
  1100   002580  9E0F               	bcf	led_toggle@pin_obj^0,7,c
  1101   002582                     u5487:
  1102   002582                     
  1103                           ;ECU_Layer/LED/ecu_led.c: 85:      gpio_pin_toggle_logic(&pin_obj);
  1104   002582  0E0F               	movlw	low led_toggle@pin_obj
  1105   002584  6E04               	movwf	gpio_pin_toggle_logic@pin_config^0,c
  1106   002586  0E00               	movlw	high led_toggle@pin_obj
  1107   002588  6E05               	movwf	(gpio_pin_toggle_logic@pin_config+1)^0,c
  1108   00258A  ECC1  F011         	call	_gpio_pin_toggle_logic	;wreg free
  1109   00258E                     l6247:
  1110                           
  1111                           ;ECU_Layer/LED/ecu_led.c: 88: return ret;
  1112   00258E  500E               	movf	led_toggle@ret^0,w,c
  1113   002590  0012               	return		;funcret
  1114   002592                     __end_of_led_toggle:
  1115                           	callstack 0
  1116                           
  1117 ;; *************** function _gpio_pin_toggle_logic *****************
  1118 ;; Defined at:
  1119 ;;		line 109 in file "MCAL_Layer/GPIO/hal_gpio.c"
  1120 ;; Parameters:    Size  Location     Type
  1121 ;;  pin_config      2    3[COMRAM] PTR const struct .
  1122 ;;		 -> led_toggle@pin_obj(1), 
  1123 ;; Auto vars:     Size  Location     Type
  1124 ;;  ret             1    0        unsigned char 
  1125 ;; Return value:  Size  Location     Type
  1126 ;;                  1    wreg      unsigned char 
  1127 ;; Registers used:
  1128 ;;		wreg, fsr2l, fsr2h, status,2, status,0, prodl, prodh
  1129 ;; Tracked objects:
  1130 ;;		On entry : 0/0
  1131 ;;		On exit  : 0/0
  1132 ;;		Unchanged: 0/0
  1133 ;; Data sizes:     COMRAM   BANK0   BANK1   BANK2   BANK3   BANK4   BANK5   BANK6   BANK7   BANK8   BANK9  BANK10  BANK1
      +1  BANK12  BANK13  BANK14  BANK15
  1134 ;;      Params:         2       0       0       0       0       0       0       0       0       0       0       0       
      +0       0       0       0       0
  1135 ;;      Locals:         0       0       0       0       0       0       0       0       0       0       0       0       
      +0       0       0       0       0
  1136 ;;      Temps:          5       0       0       0       0       0       0       0       0       0       0       0       
      +0       0       0       0       0
  1137 ;;      Totals:         7       0       0       0       0       0       0       0       0       0       0       0       
      +0       0       0       0       0
  1138 ;;Total ram usage:        7 bytes
  1139 ;; Hardware stack levels used: 1
  1140 ;; Hardware stack levels required when called: 3
  1141 ;; This function calls:
  1142 ;;		Nothing
  1143 ;; This function is called by:
  1144 ;;		_led_toggle
  1145 ;; This function uses a non-reentrant model
  1146 ;;
  1147                           
  1148                           	psect	text3
  1149   002382                     __ptext3:
  1150                           	callstack 0
  1151   002382                     _gpio_pin_toggle_logic:
  1152                           	callstack 26
  1153   002382                     
  1154                           ;MCAL_Layer/GPIO/hal_gpio.c: 111:       if(pin_config == ((void*)0) || pin_config->pin >
      +                           8 -1){
  1155   002382  5004               	movf	gpio_pin_toggle_logic@pin_config^0,w,c
  1156   002384  1005               	iorwf	(gpio_pin_toggle_logic@pin_config+1)^0,w,c
  1157   002386  B4D8               	btfsc	status,2,c
  1158   002388  EFC8  F011         	goto	u5181
  1159   00238C  EFCA  F011         	goto	u5180
  1160   002390                     u5181:
  1161   002390  EFDB  F011         	goto	l5993
  1162   002394                     u5180:
  1163   002394  C004  FFD9         	movff	gpio_pin_toggle_logic@pin_config,fsr2l
  1164   002398  C005  FFDA         	movff	gpio_pin_toggle_logic@pin_config+1,fsr2h
  1165   00239C  30DF               	rrcf	223,w,c
  1166   00239E  32E8               	rrcf	wreg,f,c
  1167   0023A0  32E8               	rrcf	wreg,f,c
  1168   0023A2  0B07               	andlw	7
  1169   0023A4  6E06               	movwf	??_gpio_pin_toggle_logic^0,c
  1170   0023A6  0E07               	movlw	7
  1171   0023A8  6406               	cpfsgt	??_gpio_pin_toggle_logic^0,c
  1172   0023AA  EFD9  F011         	goto	u5191
  1173   0023AE  EFDB  F011         	goto	u5190
  1174   0023B2                     u5191:
  1175   0023B2  EFDD  F011         	goto	l5995
  1176   0023B6                     u5190:
  1177   0023B6                     l5993:
  1178                           
  1179                           ;MCAL_Layer/GPIO/hal_gpio.c: 113:  }
  1180   0023B6  EF09  F012         	goto	l778
  1181   0023BA                     l5995:
  1182                           
  1183                           ;MCAL_Layer/GPIO/hal_gpio.c: 115:   (*lat_registers[pin_config->port] ^=(1<<pin_config->
      +                          pin));
  1184   0023BA  C004  FFD9         	movff	gpio_pin_toggle_logic@pin_config,fsr2l
  1185   0023BE  C005  FFDA         	movff	gpio_pin_toggle_logic@pin_config+1,fsr2h
  1186   0023C2  30DF               	rrcf	223,w,c
  1187   0023C4  32E8               	rrcf	wreg,f,c
  1188   0023C6  32E8               	rrcf	wreg,f,c
  1189   0023C8  0B07               	andlw	7
  1190   0023CA  6E06               	movwf	??_gpio_pin_toggle_logic^0,c
  1191   0023CC  0E01               	movlw	1
  1192   0023CE  6E07               	movwf	(??_gpio_pin_toggle_logic+1)^0,c
  1193   0023D0  2A06               	incf	??_gpio_pin_toggle_logic^0,f,c
  1194   0023D2  EFED  F011         	goto	u5204
  1195   0023D6                     u5205:
  1196   0023D6  90D8               	bcf	status,0,c
  1197   0023D8  3607               	rlcf	(??_gpio_pin_toggle_logic+1)^0,f,c
  1198   0023DA                     u5204:
  1199   0023DA  2E06               	decfsz	??_gpio_pin_toggle_logic^0,f,c
  1200   0023DC  EFEB  F011         	goto	u5205
  1201   0023E0  C004  FFD9         	movff	gpio_pin_toggle_logic@pin_config,fsr2l
  1202   0023E4  C005  FFDA         	movff	gpio_pin_toggle_logic@pin_config+1,fsr2h
  1203   0023E8  50DF               	movf	223,w,c
  1204   0023EA  0B07               	andlw	7
  1205   0023EC  6E08               	movwf	(??_gpio_pin_toggle_logic+2)^0,c
  1206   0023EE  5008               	movf	(??_gpio_pin_toggle_logic+2)^0,w,c
  1207   0023F0  0D02               	mullw	2
  1208   0023F2  0EB9               	movlw	low _lat_registers
  1209   0023F4  24F3               	addwf	243,w,c
  1210   0023F6  6ED9               	movwf	fsr2l,c
  1211   0023F8  0E00               	movlw	high _lat_registers
  1212   0023FA  20F4               	addwfc	prodh,w,c
  1213   0023FC  6EDA               	movwf	fsr2h,c
  1214   0023FE  CFDE F009          	movff	postinc2,??_gpio_pin_toggle_logic+3
  1215   002402  CFDD F00A          	movff	postdec2,??_gpio_pin_toggle_logic+4
  1216   002406  C009  FFD9         	movff	??_gpio_pin_toggle_logic+3,fsr2l
  1217   00240A  C00A  FFDA         	movff	??_gpio_pin_toggle_logic+4,fsr2h
  1218   00240E  5007               	movf	(??_gpio_pin_toggle_logic+1)^0,w,c
  1219   002410  1ADF               	xorwf	indf2,f,c
  1220   002412                     l778:
  1221   002412  0012               	return		;funcret
  1222   002414                     __end_of_gpio_pin_toggle_logic:
  1223                           	callstack 0
  1224                           
  1225 ;; *************** function _led_initialize *****************
  1226 ;; Defined at:
  1227 ;;		line 7 in file "ECU_Layer/LED/ecu_led.c"
  1228 ;; Parameters:    Size  Location     Type
  1229 ;;  led             2   17[COMRAM] PTR const struct .
  1230 ;;		 -> led1(1), 
  1231 ;; Auto vars:     Size  Location     Type
  1232 ;;  pin_obj         1   21[COMRAM] struct .
  1233 ;;  ret             1   20[COMRAM] unsigned char 
  1234 ;; Return value:  Size  Location     Type
  1235 ;;                  1    wreg      unsigned char 
  1236 ;; Registers used:
  1237 ;;		wreg, fsr2l, fsr2h, status,2, status,0, prodl, prodh, cstack
  1238 ;; Tracked objects:
  1239 ;;		On entry : 0/0
  1240 ;;		On exit  : 0/0
  1241 ;;		Unchanged: 0/0
  1242 ;; Data sizes:     COMRAM   BANK0   BANK1   BANK2   BANK3   BANK4   BANK5   BANK6   BANK7   BANK8   BANK9  BANK10  BANK1
      +1  BANK12  BANK13  BANK14  BANK15
  1243 ;;      Params:         2       0       0       0       0       0       0       0       0       0       0       0       
      +0       0       0       0       0
  1244 ;;      Locals:         2       0       0       0       0       0       0       0       0       0       0       0       
      +0       0       0       0       0
  1245 ;;      Temps:          1       0       0       0       0       0       0       0       0       0       0       0       
      +0       0       0       0       0
  1246 ;;      Totals:         5       0       0       0       0       0       0       0       0       0       0       0       
      +0       0       0       0       0
  1247 ;;Total ram usage:        5 bytes
  1248 ;; Hardware stack levels used: 1
  1249 ;; Hardware stack levels required when called: 5
  1250 ;; This function calls:
  1251 ;;		_gpio_pin_intialize
  1252 ;; This function is called by:
  1253 ;;		_main
  1254 ;; This function uses a non-reentrant model
  1255 ;;
  1256                           
  1257                           	psect	text4
  1258   002592                     __ptext4:
  1259                           	callstack 0
  1260   002592                     _led_initialize:
  1261                           	callstack 25
  1262   002592                     
  1263                           ;ECU_Layer/LED/ecu_led.c: 9: Std_ReturnType ret = (Std_ReturnType)0x01;
  1264   002592  0E01               	movlw	1
  1265   002594  6E15               	movwf	led_initialize@ret^0,c
  1266   002596                     
  1267                           ;ECU_Layer/LED/ecu_led.c: 10: if(led == ((void*)0)){
  1268   002596  5012               	movf	led_initialize@led^0,w,c
  1269   002598  1013               	iorwf	(led_initialize@led+1)^0,w,c
  1270   00259A  A4D8               	btfss	status,2,c
  1271   00259C  EFD2  F012         	goto	u5431
  1272   0025A0  EFD4  F012         	goto	u5430
  1273   0025A4                     u5431:
  1274   0025A4  EFD8  F012         	goto	l249
  1275   0025A8                     u5430:
  1276   0025A8                     
  1277                           ;ECU_Layer/LED/ecu_led.c: 11:    ret = (Std_ReturnType)0x00;
  1278   0025A8  0E00               	movlw	0
  1279   0025AA  6E15               	movwf	led_initialize@ret^0,c
  1280                           
  1281                           ;ECU_Layer/LED/ecu_led.c: 12: }
  1282   0025AC  EF05  F013         	goto	l6211
  1283   0025B0                     l249:
  1284                           
  1285                           ;ECU_Layer/LED/ecu_led.c: 14:     pin_config_t pin_obj = {.port = led->Port_Name,
  1286   0025B0  C076  F016         	movff	led_initialize@F3048,led_initialize@pin_obj
  1287   0025B4  C012  FFD9         	movff	led_initialize@led,fsr2l
  1288   0025B8  C013  FFDA         	movff	led_initialize@led+1,fsr2h
  1289   0025BC  50DF               	movf	223,w,c
  1290   0025BE  0B0F               	andlw	15
  1291   0025C0  6E14               	movwf	??_led_initialize^0,c
  1292   0025C2  5016               	movf	led_initialize@pin_obj^0,w,c
  1293   0025C4  1814               	xorwf	??_led_initialize^0,w,c
  1294   0025C6  0BF8               	andlw	-8
  1295   0025C8  1814               	xorwf	??_led_initialize^0,w,c
  1296   0025CA  6E16               	movwf	led_initialize@pin_obj^0,c
  1297   0025CC  C012  FFD9         	movff	led_initialize@led,fsr2l
  1298   0025D0  C013  FFDA         	movff	led_initialize@led+1,fsr2h
  1299   0025D4  38DF               	swapf	223,w,c
  1300   0025D6  0B07               	andlw	7
  1301   0025D8  6E14               	movwf	??_led_initialize^0,c
  1302   0025DA  4614               	rlncf	??_led_initialize^0,f,c
  1303   0025DC  4614               	rlncf	??_led_initialize^0,f,c
  1304   0025DE  4614               	rlncf	??_led_initialize^0,f,c
  1305   0025E0  5016               	movf	led_initialize@pin_obj^0,w,c
  1306   0025E2  1814               	xorwf	??_led_initialize^0,w,c
  1307   0025E4  0BC7               	andlw	-57
  1308   0025E6  1814               	xorwf	??_led_initialize^0,w,c
  1309   0025E8  6E16               	movwf	led_initialize@pin_obj^0,c
  1310   0025EA  9C16               	bcf	led_initialize@pin_obj^0,6,c
  1311   0025EC  C012  FFD9         	movff	led_initialize@led,fsr2l
  1312   0025F0  C013  FFDA         	movff	led_initialize@led+1,fsr2h
  1313   0025F4  AEDF               	btfss	indf2,7,c
  1314   0025F6  D002               	bra	u5445
  1315   0025F8  8E16               	bsf	led_initialize@pin_obj^0,7,c
  1316   0025FA  D001               	bra	u5447
  1317   0025FC                     u5445:
  1318   0025FC  9E16               	bcf	led_initialize@pin_obj^0,7,c
  1319   0025FE                     u5447:
  1320   0025FE                     
  1321                           ;ECU_Layer/LED/ecu_led.c: 19:     gpio_pin_intialize(&pin_obj);
  1322   0025FE  0E16               	movlw	low led_initialize@pin_obj
  1323   002600  6E0E               	movwf	gpio_pin_intialize@pin_config^0,c
  1324   002602  0E00               	movlw	high led_initialize@pin_obj
  1325   002604  6E0F               	movwf	(gpio_pin_intialize@pin_config+1)^0,c
  1326   002606  EC07  F013         	call	_gpio_pin_intialize	;wreg free
  1327   00260A                     l6211:
  1328                           
  1329                           ;ECU_Layer/LED/ecu_led.c: 21: return ret;
  1330   00260A  5015               	movf	led_initialize@ret^0,w,c
  1331   00260C  0012               	return		;funcret
  1332   00260E                     __end_of_led_initialize:
  1333                           	callstack 0
  1334                           
  1335 ;; *************** function _gpio_pin_intialize *****************
  1336 ;; Defined at:
  1337 ;;		line 127 in file "MCAL_Layer/GPIO/hal_gpio.c"
  1338 ;; Parameters:    Size  Location     Type
  1339 ;;  pin_config      2   13[COMRAM] PTR const struct .
  1340 ;;		 -> lcd_1.lcd_data(4), lcd_1(6), Relay_Initialize@pin_obj(1), led_initialize@pin_obj(1), 
  1341 ;; Auto vars:     Size  Location     Type
  1342 ;;  ret             1   16[COMRAM] unsigned char 
  1343 ;; Return value:  Size  Location     Type
  1344 ;;                  1    wreg      unsigned char 
  1345 ;; Registers used:
  1346 ;;		wreg, fsr2l, fsr2h, status,2, status,0, prodl, prodh, cstack
  1347 ;; Tracked objects:
  1348 ;;		On entry : 0/0
  1349 ;;		On exit  : 0/0
  1350 ;;		Unchanged: 0/0
  1351 ;; Data sizes:     COMRAM   BANK0   BANK1   BANK2   BANK3   BANK4   BANK5   BANK6   BANK7   BANK8   BANK9  BANK10  BANK1
      +1  BANK12  BANK13  BANK14  BANK15
  1352 ;;      Params:         2       0       0       0       0       0       0       0       0       0       0       0       
      +0       0       0       0       0
  1353 ;;      Locals:         1       0       0       0       0       0       0       0       0       0       0       0       
      +0       0       0       0       0
  1354 ;;      Temps:          1       0       0       0       0       0       0       0       0       0       0       0       
      +0       0       0       0       0
  1355 ;;      Totals:         4       0       0       0       0       0       0       0       0       0       0       0       
      +0       0       0       0       0
  1356 ;;Total ram usage:        4 bytes
  1357 ;; Hardware stack levels used: 1
  1358 ;; Hardware stack levels required when called: 4
  1359 ;; This function calls:
  1360 ;;		_gpio_pin_direction_intialize
  1361 ;;		_gpio_pin_write_logic
  1362 ;; This function is called by:
  1363 ;;		_led_initialize
  1364 ;;		_segment_initialize
  1365 ;;		_keypade_initialize
  1366 ;;		_lcd_4_bit_initialize
  1367 ;;		_lcd_8_bit_initialize
  1368 ;;		_DC_Motor_Intialize
  1369 ;;		_Relay_Initialize
  1370 ;;		_CCP_CAPTURE_Init
  1371 ;;		_CCP_COMPARE_Init
  1372 ;;		_CCP_PWM_Init
  1373 ;; This function uses a non-reentrant model
  1374 ;;
  1375                           
  1376                           	psect	text5
  1377   00260E                     __ptext5:
  1378                           	callstack 0
  1379   00260E                     _gpio_pin_intialize:
  1380                           	callstack 25
  1381   00260E                     
  1382                           ;MCAL_Layer/GPIO/hal_gpio.c: 129:  if(pin_config == ((void*)0) || pin_config->pin > 8 -1
      +                          ){
  1383   00260E  500E               	movf	gpio_pin_intialize@pin_config^0,w,c
  1384   002610  100F               	iorwf	(gpio_pin_intialize@pin_config+1)^0,w,c
  1385   002612  B4D8               	btfsc	status,2,c
  1386   002614  EF0E  F013         	goto	u5151
  1387   002618  EF10  F013         	goto	u5150
  1388   00261C                     u5151:
  1389   00261C  EF21  F013         	goto	l5955
  1390   002620                     u5150:
  1391   002620  C00E  FFD9         	movff	gpio_pin_intialize@pin_config,fsr2l
  1392   002624  C00F  FFDA         	movff	gpio_pin_intialize@pin_config+1,fsr2h
  1393   002628  30DF               	rrcf	223,w,c
  1394   00262A  32E8               	rrcf	wreg,f,c
  1395   00262C  32E8               	rrcf	wreg,f,c
  1396   00262E  0B07               	andlw	7
  1397   002630  6E10               	movwf	??_gpio_pin_intialize^0,c
  1398   002632  0E07               	movlw	7
  1399   002634  6410               	cpfsgt	??_gpio_pin_intialize^0,c
  1400   002636  EF1F  F013         	goto	u5161
  1401   00263A  EF21  F013         	goto	u5160
  1402   00263E                     u5161:
  1403   00263E  EF25  F013         	goto	l5957
  1404   002642                     u5160:
  1405   002642                     l5955:
  1406                           
  1407                           ;MCAL_Layer/GPIO/hal_gpio.c: 130:      ret = (Std_ReturnType)0x00;
  1408   002642  0E00               	movlw	0
  1409   002644  6E11               	movwf	gpio_pin_intialize@ret^0,c
  1410                           
  1411                           ;MCAL_Layer/GPIO/hal_gpio.c: 131:  }
  1412   002646  EF3B  F013         	goto	l5959
  1413   00264A                     l5957:
  1414                           
  1415                           ;MCAL_Layer/GPIO/hal_gpio.c: 133:      ret = gpio_pin_direction_intialize(pin_config);
  1416   00264A  C00E  F004         	movff	gpio_pin_intialize@pin_config,gpio_pin_direction_intialize@pin_config
  1417   00264E  C00F  F005         	movff	gpio_pin_intialize@pin_config+1,gpio_pin_direction_intialize@pin_config+1
  1418   002652  ECB1  F00F         	call	_gpio_pin_direction_intialize	;wreg free
  1419   002656  6E11               	movwf	gpio_pin_intialize@ret^0,c
  1420                           
  1421                           ;MCAL_Layer/GPIO/hal_gpio.c: 134:      ret = gpio_pin_write_logic(pin_config, pin_config
      +                          ->logic);
  1422   002658  C00E  F004         	movff	gpio_pin_intialize@pin_config,gpio_pin_write_logic@pin_config
  1423   00265C  C00F  F005         	movff	gpio_pin_intialize@pin_config+1,gpio_pin_write_logic@pin_config+1
  1424   002660  C00E  FFD9         	movff	gpio_pin_intialize@pin_config,fsr2l
  1425   002664  C00F  FFDA         	movff	gpio_pin_intialize@pin_config+1,fsr2h
  1426   002668  0E00               	movlw	0
  1427   00266A  BEDF               	btfsc	indf2,7,c
  1428   00266C  0E01               	movlw	1
  1429   00266E  6E06               	movwf	gpio_pin_write_logic@logic^0,c
  1430   002670  EC53  F010         	call	_gpio_pin_write_logic	;wreg free
  1431   002674  6E11               	movwf	gpio_pin_intialize@ret^0,c
  1432   002676                     l5959:
  1433                           
  1434                           ;MCAL_Layer/GPIO/hal_gpio.c: 136:   return ret;
  1435   002676  5011               	movf	gpio_pin_intialize@ret^0,w,c
  1436   002678  0012               	return		;funcret
  1437   00267A                     __end_of_gpio_pin_intialize:
  1438                           	callstack 0
  1439                           
  1440 ;; *************** function _gpio_pin_write_logic *****************
  1441 ;; Defined at:
  1442 ;;		line 59 in file "MCAL_Layer/GPIO/hal_gpio.c"
  1443 ;; Parameters:    Size  Location     Type
  1444 ;;  pin_config      2    3[COMRAM] PTR const struct .
  1445 ;;		 -> lcd_4_bit_send_command@lcd.lcd_data(8), lcd_4_bit_send_char_data@lcd.lcd_data(8), lcd_4_bit_send_data_position@l
      +cd.lcd_data(8), lcd_4_bit_send_string@lcd.lcd_data(8), 
  1446 ;;		 -> lcd_4_bit_send_string_position@lcd.lcd_data(8), lcd_1.lcd_data(8), lcd_1.lcd_data(4), lcd_1(6), 
  1447 ;;		 -> Relay_Turn_OFF@pin_obj(1), Relay_Turn_ON@pin_obj(1), Relay_Initialize@pin_obj(1), led_turn_off@pin_obj(1), 
  1448 ;;		 -> led_turn_on@pin_obj(1), led_initialize@pin_obj(1), lcd_8_bit_send_command@lcd(2), lcd_4_bit_send_string_position
      +@lcd(2), 
  1449 ;;		 -> lcd_4_bit_send_string@lcd(2), lcd_4_bit_send_data_position@lcd(2), lcd_4_bit_send_char_data@lcd(2), lcd_4_bit_se
      +nd_command@lcd(2), 
  1450 ;;  logic           1    5[COMRAM] enum E2968
  1451 ;; Auto vars:     Size  Location     Type
  1452 ;;  ret             1   12[COMRAM] unsigned char 
  1453 ;; Return value:  Size  Location     Type
  1454 ;;                  1    wreg      unsigned char 
  1455 ;; Registers used:
  1456 ;;		wreg, fsr2l, fsr2h, status,2, status,0, prodl, prodh
  1457 ;; Tracked objects:
  1458 ;;		On entry : 0/0
  1459 ;;		On exit  : 0/0
  1460 ;;		Unchanged: 0/0
  1461 ;; Data sizes:     COMRAM   BANK0   BANK1   BANK2   BANK3   BANK4   BANK5   BANK6   BANK7   BANK8   BANK9  BANK10  BANK1
      +1  BANK12  BANK13  BANK14  BANK15
  1462 ;;      Params:         3       0       0       0       0       0       0       0       0       0       0       0       
      +0       0       0       0       0
  1463 ;;      Locals:         1       0       0       0       0       0       0       0       0       0       0       0       
      +0       0       0       0       0
  1464 ;;      Temps:          6       0       0       0       0       0       0       0       0       0       0       0       
      +0       0       0       0       0
  1465 ;;      Totals:        10       0       0       0       0       0       0       0       0       0       0       0       
      +0       0       0       0       0
  1466 ;;Total ram usage:       10 bytes
  1467 ;; Hardware stack levels used: 1
  1468 ;; Hardware stack levels required when called: 3
  1469 ;; This function calls:
  1470 ;;		Nothing
  1471 ;; This function is called by:
  1472 ;;		_led_turn_off
  1473 ;;		_gpio_pin_intialize
  1474 ;;		_segment_write_data
  1475 ;;		_keypade_get_value
  1476 ;;		_lcd_4_bit_send_command
  1477 ;;		_lcd_4_bit_send_char_data
  1478 ;;		_lcd_8_bit_send_command
  1479 ;;		_lcd_8_bit_send_char_data
  1480 ;;		_send_4bit_data
  1481 ;;		_lcd_4bit_send_enable_signal
  1482 ;;		_lcd_8bit_send_enable_signal
  1483 ;;		_led_turn_on
  1484 ;;		_DC_Motor_Move_Right
  1485 ;;		_DC_Motor_Move_Left
  1486 ;;		_DC_Motor_Stop
  1487 ;;		_Relay_Turn_ON
  1488 ;;		_Relay_Turn_OFF
  1489 ;; This function uses a non-reentrant model
  1490 ;;
  1491                           
  1492                           	psect	text6
  1493   0020A6                     __ptext6:
  1494                           	callstack 0
  1495   0020A6                     _gpio_pin_write_logic:
  1496                           	callstack 26
  1497   0020A6                     
  1498                           ;MCAL_Layer/GPIO/hal_gpio.c: 60:     Std_ReturnType ret = (Std_ReturnType)0x01;
  1499   0020A6  0E01               	movlw	1
  1500   0020A8  6E0D               	movwf	gpio_pin_write_logic@ret^0,c
  1501   0020AA                     
  1502                           ;MCAL_Layer/GPIO/hal_gpio.c: 61:       if(pin_config == ((void*)0) || logic == ((void*)0
      +                          ) || pin_config->pin > 8 -1){
  1503   0020AA  5004               	movf	gpio_pin_write_logic@pin_config^0,w,c
  1504   0020AC  1005               	iorwf	(gpio_pin_write_logic@pin_config+1)^0,w,c
  1505   0020AE  B4D8               	btfsc	status,2,c
  1506   0020B0  EF5C  F010         	goto	u5041
  1507   0020B4  EF5E  F010         	goto	u5040
  1508   0020B8                     u5041:
  1509   0020B8  EF77  F010         	goto	l5865
  1510   0020BC                     u5040:
  1511   0020BC  5006               	movf	gpio_pin_write_logic@logic^0,w,c
  1512   0020BE  B4D8               	btfsc	status,2,c
  1513   0020C0  EF64  F010         	goto	u5051
  1514   0020C4  EF66  F010         	goto	u5050
  1515   0020C8                     u5051:
  1516   0020C8  EF77  F010         	goto	l5865
  1517   0020CC                     u5050:
  1518   0020CC  C004  FFD9         	movff	gpio_pin_write_logic@pin_config,fsr2l
  1519   0020D0  C005  FFDA         	movff	gpio_pin_write_logic@pin_config+1,fsr2h
  1520   0020D4  30DF               	rrcf	223,w,c
  1521   0020D6  32E8               	rrcf	wreg,f,c
  1522   0020D8  32E8               	rrcf	wreg,f,c
  1523   0020DA  0B07               	andlw	7
  1524   0020DC  6E07               	movwf	??_gpio_pin_write_logic^0,c
  1525   0020DE  0E07               	movlw	7
  1526   0020E0  6407               	cpfsgt	??_gpio_pin_write_logic^0,c
  1527   0020E2  EF75  F010         	goto	u5061
  1528   0020E6  EF77  F010         	goto	u5060
  1529   0020EA                     u5061:
  1530   0020EA  EFDA  F010         	goto	l5875
  1531   0020EE                     u5060:
  1532   0020EE                     l5865:
  1533                           
  1534                           ;MCAL_Layer/GPIO/hal_gpio.c: 62:      ret = (Std_ReturnType)0x00;
  1535   0020EE  0E00               	movlw	0
  1536   0020F0  6E0D               	movwf	gpio_pin_write_logic@ret^0,c
  1537                           
  1538                           ;MCAL_Layer/GPIO/hal_gpio.c: 63:  }
  1539   0020F2  EFEF  F010         	goto	l5877
  1540   0020F6                     l5867:
  1541                           
  1542                           ;MCAL_Layer/GPIO/hal_gpio.c: 68:            (*lat_registers[pin_config->port] &= ~(1<<pi
      +                          n_config->pin));
  1543   0020F6  C004  FFD9         	movff	gpio_pin_write_logic@pin_config,fsr2l
  1544   0020FA  C005  FFDA         	movff	gpio_pin_write_logic@pin_config+1,fsr2h
  1545   0020FE  30DF               	rrcf	223,w,c
  1546   002100  32E8               	rrcf	wreg,f,c
  1547   002102  32E8               	rrcf	wreg,f,c
  1548   002104  0B07               	andlw	7
  1549   002106  6E07               	movwf	??_gpio_pin_write_logic^0,c
  1550   002108  0E01               	movlw	1
  1551   00210A  6E08               	movwf	(??_gpio_pin_write_logic+1)^0,c
  1552   00210C  2A07               	incf	??_gpio_pin_write_logic^0,f,c
  1553   00210E  EF8B  F010         	goto	u5074
  1554   002112                     u5075:
  1555   002112  90D8               	bcf	status,0,c
  1556   002114  3608               	rlcf	(??_gpio_pin_write_logic+1)^0,f,c
  1557   002116                     u5074:
  1558   002116  2E07               	decfsz	??_gpio_pin_write_logic^0,f,c
  1559   002118  EF89  F010         	goto	u5075
  1560   00211C  5008               	movf	(??_gpio_pin_write_logic+1)^0,w,c
  1561   00211E  0AFF               	xorlw	255
  1562   002120  6E09               	movwf	(??_gpio_pin_write_logic+2)^0,c
  1563   002122  C004  FFD9         	movff	gpio_pin_write_logic@pin_config,fsr2l
  1564   002126  C005  FFDA         	movff	gpio_pin_write_logic@pin_config+1,fsr2h
  1565   00212A  50DF               	movf	223,w,c
  1566   00212C  0B07               	andlw	7
  1567   00212E  6E0A               	movwf	(??_gpio_pin_write_logic+3)^0,c
  1568   002130  500A               	movf	(??_gpio_pin_write_logic+3)^0,w,c
  1569   002132  0D02               	mullw	2
  1570   002134  0EB9               	movlw	low _lat_registers
  1571   002136  24F3               	addwf	243,w,c
  1572   002138  6ED9               	movwf	fsr2l,c
  1573   00213A  0E00               	movlw	high _lat_registers
  1574   00213C  20F4               	addwfc	prodh,w,c
  1575   00213E  6EDA               	movwf	fsr2h,c
  1576   002140  CFDE F00B          	movff	postinc2,??_gpio_pin_write_logic+4
  1577   002144  CFDD F00C          	movff	postdec2,??_gpio_pin_write_logic+5
  1578   002148  C00B  FFD9         	movff	??_gpio_pin_write_logic+4,fsr2l
  1579   00214C  C00C  FFDA         	movff	??_gpio_pin_write_logic+5,fsr2h
  1580   002150  5009               	movf	(??_gpio_pin_write_logic+2)^0,w,c
  1581   002152  16DF               	andwf	indf2,f,c
  1582                           
  1583                           ;MCAL_Layer/GPIO/hal_gpio.c: 69:            break;
  1584   002154  EFEF  F010         	goto	l5877
  1585   002158                     l5869:
  1586                           
  1587                           ;MCAL_Layer/GPIO/hal_gpio.c: 71:            (*lat_registers[pin_config->port] |= (1<<pin
      +                          _config->pin));
  1588   002158  C004  FFD9         	movff	gpio_pin_write_logic@pin_config,fsr2l
  1589   00215C  C005  FFDA         	movff	gpio_pin_write_logic@pin_config+1,fsr2h
  1590   002160  30DF               	rrcf	223,w,c
  1591   002162  32E8               	rrcf	wreg,f,c
  1592   002164  32E8               	rrcf	wreg,f,c
  1593   002166  0B07               	andlw	7
  1594   002168  6E07               	movwf	??_gpio_pin_write_logic^0,c
  1595   00216A  0E01               	movlw	1
  1596   00216C  6E08               	movwf	(??_gpio_pin_write_logic+1)^0,c
  1597   00216E  2A07               	incf	??_gpio_pin_write_logic^0,f,c
  1598   002170  EFBC  F010         	goto	u5084
  1599   002174                     u5085:
  1600   002174  90D8               	bcf	status,0,c
  1601   002176  3608               	rlcf	(??_gpio_pin_write_logic+1)^0,f,c
  1602   002178                     u5084:
  1603   002178  2E07               	decfsz	??_gpio_pin_write_logic^0,f,c
  1604   00217A  EFBA  F010         	goto	u5085
  1605   00217E  C004  FFD9         	movff	gpio_pin_write_logic@pin_config,fsr2l
  1606   002182  C005  FFDA         	movff	gpio_pin_write_logic@pin_config+1,fsr2h
  1607   002186  50DF               	movf	223,w,c
  1608   002188  0B07               	andlw	7
  1609   00218A  6E09               	movwf	(??_gpio_pin_write_logic+2)^0,c
  1610   00218C  5009               	movf	(??_gpio_pin_write_logic+2)^0,w,c
  1611   00218E  0D02               	mullw	2
  1612   002190  0EB9               	movlw	low _lat_registers
  1613   002192  24F3               	addwf	243,w,c
  1614   002194  6ED9               	movwf	fsr2l,c
  1615   002196  0E00               	movlw	high _lat_registers
  1616   002198  20F4               	addwfc	prodh,w,c
  1617   00219A  6EDA               	movwf	fsr2h,c
  1618   00219C  CFDE F00A          	movff	postinc2,??_gpio_pin_write_logic+3
  1619   0021A0  CFDD F00B          	movff	postdec2,??_gpio_pin_write_logic+4
  1620   0021A4  C00A  FFD9         	movff	??_gpio_pin_write_logic+3,fsr2l
  1621   0021A8  C00B  FFDA         	movff	??_gpio_pin_write_logic+4,fsr2h
  1622   0021AC  5008               	movf	(??_gpio_pin_write_logic+1)^0,w,c
  1623   0021AE  12DF               	iorwf	indf2,f,c
  1624                           
  1625                           ;MCAL_Layer/GPIO/hal_gpio.c: 72:            break;
  1626   0021B0  EFEF  F010         	goto	l5877
  1627   0021B4                     l5875:
  1628   0021B4  5006               	movf	gpio_pin_write_logic@logic^0,w,c
  1629   0021B6  6E07               	movwf	??_gpio_pin_write_logic^0,c
  1630   0021B8  6A08               	clrf	(??_gpio_pin_write_logic+1)^0,c
  1631                           
  1632                           ; Switch on 2 bytes has been partitioned into a top level switch of size 1, and 1 sub-sw
      +                          itches
  1633                           ; Switch size 1, requested type "simple"
  1634                           ; Number of cases is 1, Range of values is 0 to 0
  1635                           ; switch strategies available:
  1636                           ; Name         Instructions Cycles
  1637                           ; simple_byte            4     3 (average)
  1638                           ;	Chosen strategy is simple_byte
  1639   0021BA  5008               	movf	(??_gpio_pin_write_logic+1)^0,w,c
  1640   0021BC  0A00               	xorlw	0	; case 0
  1641   0021BE  B4D8               	btfsc	status,2,c
  1642   0021C0  EFE4  F010         	goto	l8169
  1643   0021C4  EF77  F010         	goto	l5865
  1644   0021C8                     l8169:
  1645                           
  1646                           ; Switch size 1, requested type "simple"
  1647                           ; Number of cases is 2, Range of values is 0 to 1
  1648                           ; switch strategies available:
  1649                           ; Name         Instructions Cycles
  1650                           ; simple_byte            7     4 (average)
  1651                           ;	Chosen strategy is simple_byte
  1652   0021C8  5007               	movf	??_gpio_pin_write_logic^0,w,c
  1653   0021CA  0A00               	xorlw	0	; case 0
  1654   0021CC  B4D8               	btfsc	status,2,c
  1655   0021CE  EF7B  F010         	goto	l5867
  1656   0021D2  0A01               	xorlw	1	; case 1
  1657   0021D4  B4D8               	btfsc	status,2,c
  1658   0021D6  EFAC  F010         	goto	l5869
  1659   0021DA  EF77  F010         	goto	l5865
  1660   0021DE                     l5877:
  1661                           
  1662                           ;MCAL_Layer/GPIO/hal_gpio.c: 78:     return ret;
  1663   0021DE  500D               	movf	gpio_pin_write_logic@ret^0,w,c
  1664   0021E0  0012               	return		;funcret
  1665   0021E2                     __end_of_gpio_pin_write_logic:
  1666                           	callstack 0
  1667                           
  1668 ;; *************** function _gpio_pin_direction_intialize *****************
  1669 ;; Defined at:
  1670 ;;		line 14 in file "MCAL_Layer/GPIO/hal_gpio.c"
  1671 ;; Parameters:    Size  Location     Type
  1672 ;;  pin_config      2    3[COMRAM] PTR const struct .
  1673 ;;		 -> lcd_1.lcd_data(4), lcd_1(6), Relay_Initialize@pin_obj(1), led_initialize@pin_obj(1), 
  1674 ;; Auto vars:     Size  Location     Type
  1675 ;;  ret             1   11[COMRAM] unsigned char 
  1676 ;; Return value:  Size  Location     Type
  1677 ;;                  1    wreg      unsigned char 
  1678 ;; Registers used:
  1679 ;;		wreg, fsr2l, fsr2h, status,2, status,0, prodl, prodh
  1680 ;; Tracked objects:
  1681 ;;		On entry : 0/0
  1682 ;;		On exit  : 0/0
  1683 ;;		Unchanged: 0/0
  1684 ;; Data sizes:     COMRAM   BANK0   BANK1   BANK2   BANK3   BANK4   BANK5   BANK6   BANK7   BANK8   BANK9  BANK10  BANK1
      +1  BANK12  BANK13  BANK14  BANK15
  1685 ;;      Params:         2       0       0       0       0       0       0       0       0       0       0       0       
      +0       0       0       0       0
  1686 ;;      Locals:         1       0       0       0       0       0       0       0       0       0       0       0       
      +0       0       0       0       0
  1687 ;;      Temps:          6       0       0       0       0       0       0       0       0       0       0       0       
      +0       0       0       0       0
  1688 ;;      Totals:         9       0       0       0       0       0       0       0       0       0       0       0       
      +0       0       0       0       0
  1689 ;;Total ram usage:        9 bytes
  1690 ;; Hardware stack levels used: 1
  1691 ;; Hardware stack levels required when called: 3
  1692 ;; This function calls:
  1693 ;;		Nothing
  1694 ;; This function is called by:
  1695 ;;		_gpio_pin_intialize
  1696 ;;		_Button_Initialize
  1697 ;;		_keypade_initialize
  1698 ;;		_Interrupt_RBx_Initialization
  1699 ;;		_Interrupt_INTx_Pin_Init
  1700 ;; This function uses a non-reentrant model
  1701 ;;
  1702                           
  1703                           	psect	text7
  1704   001F62                     __ptext7:
  1705                           	callstack 0
  1706   001F62                     _gpio_pin_direction_intialize:
  1707                           	callstack 25
  1708   001F62                     
  1709                           ;MCAL_Layer/GPIO/hal_gpio.c: 15:  Std_ReturnType ret = (Std_ReturnType)0x01;
  1710   001F62  0E01               	movlw	1
  1711   001F64  6E0C               	movwf	gpio_pin_direction_intialize@ret^0,c
  1712   001F66                     
  1713                           ;MCAL_Layer/GPIO/hal_gpio.c: 16:  if(pin_config == ((void*)0) || pin_config->pin > 8 -1)
      +                          {
  1714   001F66  5004               	movf	gpio_pin_direction_intialize@pin_config^0,w,c
  1715   001F68  1005               	iorwf	(gpio_pin_direction_intialize@pin_config+1)^0,w,c
  1716   001F6A  B4D8               	btfsc	status,2,c
  1717   001F6C  EFBA  F00F         	goto	u5091
  1718   001F70  EFBC  F00F         	goto	u5090
  1719   001F74                     u5091:
  1720   001F74  EFCD  F00F         	goto	l5891
  1721   001F78                     u5090:
  1722   001F78  C004  FFD9         	movff	gpio_pin_direction_intialize@pin_config,fsr2l
  1723   001F7C  C005  FFDA         	movff	gpio_pin_direction_intialize@pin_config+1,fsr2h
  1724   001F80  30DF               	rrcf	223,w,c
  1725   001F82  32E8               	rrcf	wreg,f,c
  1726   001F84  32E8               	rrcf	wreg,f,c
  1727   001F86  0B07               	andlw	7
  1728   001F88  6E06               	movwf	??_gpio_pin_direction_intialize^0,c
  1729   001F8A  0E07               	movlw	7
  1730   001F8C  6406               	cpfsgt	??_gpio_pin_direction_intialize^0,c
  1731   001F8E  EFCB  F00F         	goto	u5101
  1732   001F92  EFCD  F00F         	goto	u5100
  1733   001F96                     u5101:
  1734   001F96  EF30  F010         	goto	l5899
  1735   001F9A                     u5100:
  1736   001F9A                     l5891:
  1737                           
  1738                           ;MCAL_Layer/GPIO/hal_gpio.c: 17:      ret = (Std_ReturnType)0x00;
  1739   001F9A  0E00               	movlw	0
  1740   001F9C  6E0C               	movwf	gpio_pin_direction_intialize@ret^0,c
  1741                           
  1742                           ;MCAL_Layer/GPIO/hal_gpio.c: 18:  }
  1743   001F9E  EF51  F010         	goto	l5901
  1744   001FA2                     l5893:
  1745                           
  1746                           ;MCAL_Layer/GPIO/hal_gpio.c: 22:            (*tris_registers[pin_config->port] &= ~(1<<p
      +                          in_config->pin));
  1747   001FA2  C004  FFD9         	movff	gpio_pin_direction_intialize@pin_config,fsr2l
  1748   001FA6  C005  FFDA         	movff	gpio_pin_direction_intialize@pin_config+1,fsr2h
  1749   001FAA  30DF               	rrcf	223,w,c
  1750   001FAC  32E8               	rrcf	wreg,f,c
  1751   001FAE  32E8               	rrcf	wreg,f,c
  1752   001FB0  0B07               	andlw	7
  1753   001FB2  6E06               	movwf	??_gpio_pin_direction_intialize^0,c
  1754   001FB4  0E01               	movlw	1
  1755   001FB6  6E07               	movwf	(??_gpio_pin_direction_intialize+1)^0,c
  1756   001FB8  2A06               	incf	??_gpio_pin_direction_intialize^0,f,c
  1757   001FBA  EFE1  F00F         	goto	u5114
  1758   001FBE                     u5115:
  1759   001FBE  90D8               	bcf	status,0,c
  1760   001FC0  3607               	rlcf	(??_gpio_pin_direction_intialize+1)^0,f,c
  1761   001FC2                     u5114:
  1762   001FC2  2E06               	decfsz	??_gpio_pin_direction_intialize^0,f,c
  1763   001FC4  EFDF  F00F         	goto	u5115
  1764   001FC8  5007               	movf	(??_gpio_pin_direction_intialize+1)^0,w,c
  1765   001FCA  0AFF               	xorlw	255
  1766   001FCC  6E08               	movwf	(??_gpio_pin_direction_intialize+2)^0,c
  1767   001FCE  C004  FFD9         	movff	gpio_pin_direction_intialize@pin_config,fsr2l
  1768   001FD2  C005  FFDA         	movff	gpio_pin_direction_intialize@pin_config+1,fsr2h
  1769   001FD6  50DF               	movf	223,w,c
  1770   001FD8  0B07               	andlw	7
  1771   001FDA  6E09               	movwf	(??_gpio_pin_direction_intialize+3)^0,c
  1772   001FDC  5009               	movf	(??_gpio_pin_direction_intialize+3)^0,w,c
  1773   001FDE  0D02               	mullw	2
  1774   001FE0  0EC3               	movlw	low _tris_registers
  1775   001FE2  24F3               	addwf	243,w,c
  1776   001FE4  6ED9               	movwf	fsr2l,c
  1777   001FE6  0E00               	movlw	high _tris_registers
  1778   001FE8  20F4               	addwfc	prodh,w,c
  1779   001FEA  6EDA               	movwf	fsr2h,c
  1780   001FEC  CFDE F00A          	movff	postinc2,??_gpio_pin_direction_intialize+4
  1781   001FF0  CFDD F00B          	movff	postdec2,??_gpio_pin_direction_intialize+5
  1782   001FF4  C00A  FFD9         	movff	??_gpio_pin_direction_intialize+4,fsr2l
  1783   001FF8  C00B  FFDA         	movff	??_gpio_pin_direction_intialize+5,fsr2h
  1784   001FFC  5008               	movf	(??_gpio_pin_direction_intialize+2)^0,w,c
  1785   001FFE  16DF               	andwf	indf2,f,c
  1786                           
  1787                           ;MCAL_Layer/GPIO/hal_gpio.c: 23:            break;
  1788   002000  EF51  F010         	goto	l5901
  1789   002004                     l5895:
  1790                           
  1791                           ;MCAL_Layer/GPIO/hal_gpio.c: 25:            (*tris_registers[pin_config->port] |= (1<<pi
      +                          n_config->pin));
  1792   002004  C004  FFD9         	movff	gpio_pin_direction_intialize@pin_config,fsr2l
  1793   002008  C005  FFDA         	movff	gpio_pin_direction_intialize@pin_config+1,fsr2h
  1794   00200C  30DF               	rrcf	223,w,c
  1795   00200E  32E8               	rrcf	wreg,f,c
  1796   002010  32E8               	rrcf	wreg,f,c
  1797   002012  0B07               	andlw	7
  1798   002014  6E06               	movwf	??_gpio_pin_direction_intialize^0,c
  1799   002016  0E01               	movlw	1
  1800   002018  6E07               	movwf	(??_gpio_pin_direction_intialize+1)^0,c
  1801   00201A  2A06               	incf	??_gpio_pin_direction_intialize^0,f,c
  1802   00201C  EF12  F010         	goto	u5124
  1803   002020                     u5125:
  1804   002020  90D8               	bcf	status,0,c
  1805   002022  3607               	rlcf	(??_gpio_pin_direction_intialize+1)^0,f,c
  1806   002024                     u5124:
  1807   002024  2E06               	decfsz	??_gpio_pin_direction_intialize^0,f,c
  1808   002026  EF10  F010         	goto	u5125
  1809   00202A  C004  FFD9         	movff	gpio_pin_direction_intialize@pin_config,fsr2l
  1810   00202E  C005  FFDA         	movff	gpio_pin_direction_intialize@pin_config+1,fsr2h
  1811   002032  50DF               	movf	223,w,c
  1812   002034  0B07               	andlw	7
  1813   002036  6E08               	movwf	(??_gpio_pin_direction_intialize+2)^0,c
  1814   002038  5008               	movf	(??_gpio_pin_direction_intialize+2)^0,w,c
  1815   00203A  0D02               	mullw	2
  1816   00203C  0EC3               	movlw	low _tris_registers
  1817   00203E  24F3               	addwf	243,w,c
  1818   002040  6ED9               	movwf	fsr2l,c
  1819   002042  0E00               	movlw	high _tris_registers
  1820   002044  20F4               	addwfc	prodh,w,c
  1821   002046  6EDA               	movwf	fsr2h,c
  1822   002048  CFDE F009          	movff	postinc2,??_gpio_pin_direction_intialize+3
  1823   00204C  CFDD F00A          	movff	postdec2,??_gpio_pin_direction_intialize+4
  1824   002050  C009  FFD9         	movff	??_gpio_pin_direction_intialize+3,fsr2l
  1825   002054  C00A  FFDA         	movff	??_gpio_pin_direction_intialize+4,fsr2h
  1826   002058  5007               	movf	(??_gpio_pin_direction_intialize+1)^0,w,c
  1827   00205A  12DF               	iorwf	indf2,f,c
  1828                           
  1829                           ;MCAL_Layer/GPIO/hal_gpio.c: 26:            break;
  1830   00205C  EF51  F010         	goto	l5901
  1831   002060                     l5899:
  1832   002060  C004  FFD9         	movff	gpio_pin_direction_intialize@pin_config,fsr2l
  1833   002064  C005  FFDA         	movff	gpio_pin_direction_intialize@pin_config+1,fsr2h
  1834   002068  BCDF               	btfsc	indf2,6,c
  1835   00206A  EF39  F010         	goto	u5131
  1836   00206E  EF3C  F010         	goto	u5130
  1837   002072                     u5131:
  1838   002072  0E01               	movlw	1
  1839   002074  EF3D  F010         	goto	u5140
  1840   002078                     u5130:
  1841   002078  0E00               	movlw	0
  1842   00207A                     u5140:
  1843   00207A  6E06               	movwf	??_gpio_pin_direction_intialize^0,c
  1844   00207C  6A07               	clrf	(??_gpio_pin_direction_intialize+1)^0,c
  1845                           
  1846                           ; Switch on 2 bytes has been partitioned into a top level switch of size 1, and 1 sub-sw
      +                          itches
  1847                           ; Switch size 1, requested type "simple"
  1848                           ; Number of cases is 1, Range of values is 0 to 0
  1849                           ; switch strategies available:
  1850                           ; Name         Instructions Cycles
  1851                           ; simple_byte            4     3 (average)
  1852                           ;	Chosen strategy is simple_byte
  1853   00207E  5007               	movf	(??_gpio_pin_direction_intialize+1)^0,w,c
  1854   002080  0A00               	xorlw	0	; case 0
  1855   002082  B4D8               	btfsc	status,2,c
  1856   002084  EF46  F010         	goto	l8171
  1857   002088  EFCD  F00F         	goto	l5891
  1858   00208C                     l8171:
  1859                           
  1860                           ; Switch size 1, requested type "simple"
  1861                           ; Number of cases is 2, Range of values is 0 to 1
  1862                           ; switch strategies available:
  1863                           ; Name         Instructions Cycles
  1864                           ; simple_byte            7     4 (average)
  1865                           ;	Chosen strategy is simple_byte
  1866   00208C  5006               	movf	??_gpio_pin_direction_intialize^0,w,c
  1867   00208E  0A00               	xorlw	0	; case 0
  1868   002090  B4D8               	btfsc	status,2,c
  1869   002092  EFD1  F00F         	goto	l5893
  1870   002096  0A01               	xorlw	1	; case 1
  1871   002098  B4D8               	btfsc	status,2,c
  1872   00209A  EF02  F010         	goto	l5895
  1873   00209E  EFCD  F00F         	goto	l5891
  1874   0020A2                     l5901:
  1875                           
  1876                           ;MCAL_Layer/GPIO/hal_gpio.c: 31:       return ret;
  1877   0020A2  500C               	movf	gpio_pin_direction_intialize@ret^0,w,c
  1878   0020A4  0012               	return		;funcret
  1879   0020A6                     __end_of_gpio_pin_direction_intialize:
  1880                           	callstack 0
  1881                           
  1882 ;; *************** function _I2C_init *****************
  1883 ;; Defined at:
  1884 ;;		line 27 in file "application.c"
  1885 ;; Parameters:    Size  Location     Type
  1886 ;;		None
  1887 ;; Auto vars:     Size  Location     Type
  1888 ;;  ret             1    0        unsigned char 
  1889 ;; Return value:  Size  Location     Type
  1890 ;;                  1    wreg      void 
  1891 ;; Registers used:
  1892 ;;		wreg, fsr2l, fsr2h, status,2, status,0, cstack
  1893 ;; Tracked objects:
  1894 ;;		On entry : 0/0
  1895 ;;		On exit  : 0/0
  1896 ;;		Unchanged: 0/0
  1897 ;; Data sizes:     COMRAM   BANK0   BANK1   BANK2   BANK3   BANK4   BANK5   BANK6   BANK7   BANK8   BANK9  BANK10  BANK1
      +1  BANK12  BANK13  BANK14  BANK15
  1898 ;;      Params:         0       0       0       0       0       0       0       0       0       0       0       0       
      +0       0       0       0       0
  1899 ;;      Locals:         0       0       0       0       0       0       0       0       0       0       0       0       
      +0       0       0       0       0
  1900 ;;      Temps:          0       0       0       0       0       0       0       0       0       0       0       0       
      +0       0       0       0       0
  1901 ;;      Totals:         0       0       0       0       0       0       0       0       0       0       0       0       
      +0       0       0       0       0
  1902 ;;Total ram usage:        0 bytes
  1903 ;; Hardware stack levels used: 1
  1904 ;; Hardware stack levels required when called: 6
  1905 ;; This function calls:
  1906 ;;		_MSSP_I2C_Init
  1907 ;; This function is called by:
  1908 ;;		_main
  1909 ;; This function uses a non-reentrant model
  1910 ;;
  1911                           
  1912                           	psect	text8
  1913   002758                     __ptext8:
  1914                           	callstack 0
  1915   002758                     _I2C_init:
  1916                           	callstack 24
  1917   002758                     
  1918                           ;application.c: 30:    i2c_obj.I2C_Defualt_Interrupt_Hundeler = MSSP_I2C_Defualt_Interru
      +                          pt_Hundeler;
  1919   002758  0E1C               	movlw	low _MSSP_I2C_Defualt_Interrupt_Hundeler
  1920   00275A  0100               	movlb	0	; () banked
  1921   00275C  6FA6               	movwf	(_i2c_obj+6)& (0+255),b
  1922   00275E  0E27               	movlw	high _MSSP_I2C_Defualt_Interrupt_Hundeler
  1923   002760  6FA7               	movwf	(_i2c_obj+7)& (0+255),b
  1924   002762                     
  1925                           ; BSR set to: 0
  1926                           ;application.c: 31:    i2c_obj.I2c_Receive_Overflow = ((void*)0);
  1927   002762  0E00               	movlw	0
  1928   002764  6FA8               	movwf	(_i2c_obj+8)& (0+255),b
  1929   002766  0E00               	movlw	0
  1930   002768  6FA9               	movwf	(_i2c_obj+9)& (0+255),b
  1931   00276A                     
  1932                           ; BSR set to: 0
  1933                           ;application.c: 32:    i2c_obj.I2c_Write_Collision = ((void*)0);
  1934   00276A  0E00               	movlw	0
  1935   00276C  6FA4               	movwf	(_i2c_obj+4)& (0+255),b
  1936   00276E  0E00               	movlw	0
  1937   002770  6FA5               	movwf	(_i2c_obj+5)& (0+255),b
  1938   002772                     
  1939                           ; BSR set to: 0
  1940                           ;application.c: 33:    i2c_obj.i2c_cfg.i2c_mode = 0;
  1941   002772  91AC               	bcf	(_i2c_obj+12)& (0+255),0,b
  1942   002774                     
  1943                           ; BSR set to: 0
  1944                           ;application.c: 34:    i2c_obj.i2c_cfg.i2c_mode_cfg = 0x06U;
  1945   002774  0E06               	movlw	6
  1946   002776  6FAA               	movwf	(_i2c_obj+10)& (0+255),b
  1947   002778                     
  1948                           ; BSR set to: 0
  1949                           ;application.c: 35:    i2c_obj.i2c_cfg.i2c_SMBus_Control = 0;
  1950   002778  95AC               	bcf	(_i2c_obj+12)& (0+255),2,b
  1951   00277A                     
  1952                           ; BSR set to: 0
  1953                           ;application.c: 36:    i2c_obj.i2c_cfg.i2c_slew_rate = 1;
  1954   00277A  83AC               	bsf	(_i2c_obj+12)& (0+255),1,b
  1955   00277C                     
  1956                           ; BSR set to: 0
  1957                           ;application.c: 37:    i2c_obj.i2c_cfg.i2c_slave_address = 0x62;
  1958   00277C  0E62               	movlw	98
  1959   00277E  6FAB               	movwf	(_i2c_obj+11)& (0+255),b
  1960   002780                     
  1961                           ; BSR set to: 0
  1962                           ;application.c: 38:    i2c_obj.i2c_cfg.i2c_general_call = 0;
  1963   002780  97AC               	bcf	(_i2c_obj+12)& (0+255),3,b
  1964   002782                     
  1965                           ; BSR set to: 0
  1966   002782  0EA0               	movlw	low _i2c_obj
  1967   002784  6FDD               	movwf	MSSP_I2C_Init@i2c_obj& (0+255),b
  1968   002786  0E00               	movlw	high _i2c_obj
  1969   002788  6FDE               	movwf	(MSSP_I2C_Init@i2c_obj+1)& (0+255),b
  1970   00278A  EC06  F00F         	call	_MSSP_I2C_Init	;wreg free
  1971   00278E  0012               	return		;funcret
  1972   002790                     __end_of_I2C_init:
  1973                           	callstack 0
  1974                           
  1975 ;; *************** function _MSSP_I2C_Init *****************
  1976 ;; Defined at:
  1977 ;;		line 19 in file "MCAL_Layer/I2C/hal_i2c.c"
  1978 ;; Parameters:    Size  Location     Type
  1979 ;;  i2c_obj         2    0[BANK0 ] PTR const struct .
  1980 ;;		 -> i2c_obj(15), 
  1981 ;; Auto vars:     Size  Location     Type
  1982 ;;  ret             1    2[BANK0 ] unsigned char 
  1983 ;; Return value:  Size  Location     Type
  1984 ;;                  1    wreg      unsigned char 
  1985 ;; Registers used:
  1986 ;;		wreg, fsr2l, fsr2h, status,2, status,0, cstack
  1987 ;; Tracked objects:
  1988 ;;		On entry : 0/0
  1989 ;;		On exit  : 0/0
  1990 ;;		Unchanged: 0/0
  1991 ;; Data sizes:     COMRAM   BANK0   BANK1   BANK2   BANK3   BANK4   BANK5   BANK6   BANK7   BANK8   BANK9  BANK10  BANK1
      +1  BANK12  BANK13  BANK14  BANK15
  1992 ;;      Params:         0       2       0       0       0       0       0       0       0       0       0       0       
      +0       0       0       0       0
  1993 ;;      Locals:         0       1       0       0       0       0       0       0       0       0       0       0       
      +0       0       0       0       0
  1994 ;;      Temps:          0       0       0       0       0       0       0       0       0       0       0       0       
      +0       0       0       0       0
  1995 ;;      Totals:         0       3       0       0       0       0       0       0       0       0       0       0       
      +0       0       0       0       0
  1996 ;;Total ram usage:        3 bytes
  1997 ;; Hardware stack levels used: 1
  1998 ;; Hardware stack levels required when called: 5
  1999 ;; This function calls:
  2000 ;;		_MSSP_I2C_Clock_CFG
  2001 ;;		_MSSP_I2C_Interrupt_Configuration
  2002 ;;		_MSSP_I2C_Mode_GPIO_CFG
  2003 ;;		_MSSP_I2C_Slave_CFG
  2004 ;; This function is called by:
  2005 ;;		_I2C_init
  2006 ;; This function uses a non-reentrant model
  2007 ;;
  2008                           
  2009                           	psect	text9
  2010   001E0C                     __ptext9:
  2011                           	callstack 0
  2012   001E0C                     _MSSP_I2C_Init:
  2013                           	callstack 24
  2014   001E0C                     
  2015                           ;MCAL_Layer/I2C/hal_i2c.c: 21: if(i2c_obj == ((void*)0)){
  2016   001E0C  0100               	movlb	0	; () banked
  2017   001E0E  51DD               	movf	MSSP_I2C_Init@i2c_obj& (0+255),w,b
  2018   001E10  11DE               	iorwf	(MSSP_I2C_Init@i2c_obj+1)& (0+255),w,b
  2019   001E12  A4D8               	btfss	status,2,c
  2020   001E14  EF0E  F00F         	goto	u8031
  2021   001E18  EF10  F00F         	goto	u8030
  2022   001E1C                     u8031:
  2023   001E1C  EF14  F00F         	goto	l1571
  2024   001E20                     u8030:
  2025   001E20                     
  2026                           ; BSR set to: 0
  2027                           ;MCAL_Layer/I2C/hal_i2c.c: 22: ret = (Std_ReturnType)0x00;
  2028   001E20  0E00               	movlw	0
  2029   001E22  6FDF               	movwf	MSSP_I2C_Init@ret& (0+255),b
  2030                           
  2031                           ;MCAL_Layer/I2C/hal_i2c.c: 23: }
  2032   001E24  EFAF  F00F         	goto	l7979
  2033   001E28                     l1571:
  2034                           
  2035                           ; BSR set to: 0
  2036                           ;MCAL_Layer/I2C/hal_i2c.c: 26:     (SSPCON1bits.SSPEN = 0);
  2037   001E28  9AC6               	bcf	198,5,c	;volatile
  2038   001E2A                     
  2039                           ; BSR set to: 0
  2040                           ;MCAL_Layer/I2C/hal_i2c.c: 29: if(i2c_obj->i2c_cfg.i2c_mode == 1){
  2041   001E2A  EE20 F00C          	lfsr	2,12
  2042   001E2E  51DD               	movf	MSSP_I2C_Init@i2c_obj& (0+255),w,b
  2043   001E30  26D9               	addwf	fsr2l,f,c
  2044   001E32  51DE               	movf	(MSSP_I2C_Init@i2c_obj+1)& (0+255),w,b
  2045   001E34  22DA               	addwfc	fsr2h,f,c
  2046   001E36  A0DF               	btfss	indf2,0,c
  2047   001E38  EF20  F00F         	goto	u8041
  2048   001E3C  EF22  F00F         	goto	u8040
  2049   001E40                     u8041:
  2050   001E40  EF2A  F00F         	goto	l7941
  2051   001E44                     u8040:
  2052   001E44                     
  2053                           ; BSR set to: 0
  2054                           ;MCAL_Layer/I2C/hal_i2c.c: 31: MSSP_I2C_Clock_CFG(i2c_obj);
  2055   001E44  C0DD  F045         	movff	MSSP_I2C_Init@i2c_obj,MSSP_I2C_Clock_CFG@i2c_obj
  2056   001E48  C0DE  F046         	movff	MSSP_I2C_Init@i2c_obj+1,MSSP_I2C_Clock_CFG@i2c_obj+1
  2057   001E4C  EC74  F011         	call	_MSSP_I2C_Clock_CFG	;wreg free
  2058                           
  2059                           ;MCAL_Layer/I2C/hal_i2c.c: 32: }
  2060   001E50  EF66  F00F         	goto	l7955
  2061   001E54                     l7941:
  2062                           
  2063                           ; BSR set to: 0
  2064   001E54  EE20 F00C          	lfsr	2,12
  2065   001E58  51DD               	movf	MSSP_I2C_Init@i2c_obj& (0+255),w,b
  2066   001E5A  26D9               	addwf	fsr2l,f,c
  2067   001E5C  51DE               	movf	(MSSP_I2C_Init@i2c_obj+1)& (0+255),w,b
  2068   001E5E  22DA               	addwfc	fsr2h,f,c
  2069   001E60  B0DF               	btfsc	indf2,0,c
  2070   001E62  EF35  F00F         	goto	u8051
  2071   001E66  EF37  F00F         	goto	u8050
  2072   001E6A                     u8051:
  2073   001E6A  EF66  F00F         	goto	l7955
  2074   001E6E                     u8050:
  2075   001E6E                     
  2076                           ; BSR set to: 0
  2077                           ;MCAL_Layer/I2C/hal_i2c.c: 36:     if(i2c_obj->i2c_cfg.i2c_general_call == 1){
  2078   001E6E  EE20 F00C          	lfsr	2,12
  2079   001E72  51DD               	movf	MSSP_I2C_Init@i2c_obj& (0+255),w,b
  2080   001E74  26D9               	addwf	fsr2l,f,c
  2081   001E76  51DE               	movf	(MSSP_I2C_Init@i2c_obj+1)& (0+255),w,b
  2082   001E78  22DA               	addwfc	fsr2h,f,c
  2083   001E7A  A6DF               	btfss	indf2,3,c
  2084   001E7C  EF42  F00F         	goto	u8061
  2085   001E80  EF44  F00F         	goto	u8060
  2086   001E84                     u8061:
  2087   001E84  EF47  F00F         	goto	l7947
  2088   001E88                     u8060:
  2089   001E88                     
  2090                           ; BSR set to: 0
  2091                           ;MCAL_Layer/I2C/hal_i2c.c: 37:         (SSPCON2bits.GCEN = 1);
  2092   001E88  8EC5               	bsf	197,7,c	;volatile
  2093                           
  2094                           ;MCAL_Layer/I2C/hal_i2c.c: 38:     }
  2095   001E8A  EF55  F00F         	goto	l1577
  2096   001E8E                     l7947:
  2097                           
  2098                           ; BSR set to: 0
  2099   001E8E  EE20 F00C          	lfsr	2,12
  2100   001E92  51DD               	movf	MSSP_I2C_Init@i2c_obj& (0+255),w,b
  2101   001E94  26D9               	addwf	fsr2l,f,c
  2102   001E96  51DE               	movf	(MSSP_I2C_Init@i2c_obj+1)& (0+255),w,b
  2103   001E98  22DA               	addwfc	fsr2h,f,c
  2104   001E9A  B6DF               	btfsc	indf2,3,c
  2105   001E9C  EF52  F00F         	goto	u8071
  2106   001EA0  EF54  F00F         	goto	u8070
  2107   001EA4                     u8071:
  2108   001EA4  EF55  F00F         	goto	l1577
  2109   001EA8                     u8070:
  2110   001EA8                     
  2111                           ; BSR set to: 0
  2112                           ;MCAL_Layer/I2C/hal_i2c.c: 40:         (SSPCON2bits.GCEN = 0);
  2113   001EA8  9EC5               	bcf	197,7,c	;volatile
  2114   001EAA                     l1577:
  2115                           
  2116                           ; BSR set to: 0
  2117                           ;MCAL_Layer/I2C/hal_i2c.c: 44:    SSPCON1bits.WCOL = 0;
  2118   001EAA  9EC6               	bcf	198,7,c	;volatile
  2119                           
  2120                           ;MCAL_Layer/I2C/hal_i2c.c: 46:    SSPCON1bits.SSPOV = 0;
  2121   001EAC  9CC6               	bcf	198,6,c	;volatile
  2122                           
  2123                           ;MCAL_Layer/I2C/hal_i2c.c: 48:    SSPCON1bits.CKP = 1;
  2124   001EAE  88C6               	bsf	198,4,c	;volatile
  2125   001EB0                     
  2126                           ; BSR set to: 0
  2127                           ;MCAL_Layer/I2C/hal_i2c.c: 50:    SSPADD = i2c_obj->i2c_cfg.i2c_slave_address;
  2128   001EB0  EE20 F00B          	lfsr	2,11
  2129   001EB4  51DD               	movf	MSSP_I2C_Init@i2c_obj& (0+255),w,b
  2130   001EB6  26D9               	addwf	fsr2l,f,c
  2131   001EB8  51DE               	movf	(MSSP_I2C_Init@i2c_obj+1)& (0+255),w,b
  2132   001EBA  22DA               	addwfc	fsr2h,f,c
  2133   001EBC  50DF               	movf	indf2,w,c
  2134   001EBE  6EC8               	movwf	200,c	;volatile
  2135   001EC0                     
  2136                           ; BSR set to: 0
  2137                           ;MCAL_Layer/I2C/hal_i2c.c: 52:    MSSP_I2C_Slave_CFG(i2c_obj);
  2138   001EC0  C0DD  F004         	movff	MSSP_I2C_Init@i2c_obj,MSSP_I2C_Slave_CFG@i2c_obj
  2139   001EC4  C0DE  F005         	movff	MSSP_I2C_Init@i2c_obj+1,MSSP_I2C_Slave_CFG@i2c_obj+1
  2140   001EC8  EC0E  F014         	call	_MSSP_I2C_Slave_CFG	;wreg free
  2141   001ECC                     l7955:
  2142                           
  2143                           ;MCAL_Layer/I2C/hal_i2c.c: 56:     MSSP_I2C_Mode_GPIO_CFG();
  2144   001ECC  EC66  F014         	call	_MSSP_I2C_Mode_GPIO_CFG	;wreg free
  2145   001ED0                     
  2146                           ;MCAL_Layer/I2C/hal_i2c.c: 58:     if(i2c_obj->i2c_cfg.i2c_slew_rate == 0){
  2147   001ED0  0100               	movlb	0	; () banked
  2148   001ED2  EE20 F00C          	lfsr	2,12
  2149   001ED6  51DD               	movf	MSSP_I2C_Init@i2c_obj& (0+255),w,b
  2150   001ED8  26D9               	addwf	fsr2l,f,c
  2151   001EDA  51DE               	movf	(MSSP_I2C_Init@i2c_obj+1)& (0+255),w,b
  2152   001EDC  22DA               	addwfc	fsr2h,f,c
  2153   001EDE  B2DF               	btfsc	indf2,1,c
  2154   001EE0  EF74  F00F         	goto	u8081
  2155   001EE4  EF76  F00F         	goto	u8080
  2156   001EE8                     u8081:
  2157   001EE8  EF79  F00F         	goto	l7961
  2158   001EEC                     u8080:
  2159   001EEC                     
  2160                           ; BSR set to: 0
  2161                           ;MCAL_Layer/I2C/hal_i2c.c: 59:         (SSPSTATbits.SMP = 0);
  2162   001EEC  9EC7               	bcf	199,7,c	;volatile
  2163                           
  2164                           ;MCAL_Layer/I2C/hal_i2c.c: 60:     }
  2165   001EEE  EF87  F00F         	goto	l7965
  2166   001EF2                     l7961:
  2167                           
  2168                           ; BSR set to: 0
  2169   001EF2  EE20 F00C          	lfsr	2,12
  2170   001EF6  51DD               	movf	MSSP_I2C_Init@i2c_obj& (0+255),w,b
  2171   001EF8  26D9               	addwf	fsr2l,f,c
  2172   001EFA  51DE               	movf	(MSSP_I2C_Init@i2c_obj+1)& (0+255),w,b
  2173   001EFC  22DA               	addwfc	fsr2h,f,c
  2174   001EFE  A2DF               	btfss	indf2,1,c
  2175   001F00  EF84  F00F         	goto	u8091
  2176   001F04  EF86  F00F         	goto	u8090
  2177   001F08                     u8091:
  2178   001F08  EF87  F00F         	goto	l7965
  2179   001F0C                     u8090:
  2180   001F0C                     
  2181                           ; BSR set to: 0
  2182                           ;MCAL_Layer/I2C/hal_i2c.c: 62:         (SSPSTATbits.SMP = 1);
  2183   001F0C  8EC7               	bsf	199,7,c	;volatile
  2184   001F0E                     l7965:
  2185                           
  2186                           ; BSR set to: 0
  2187                           ;MCAL_Layer/I2C/hal_i2c.c: 66:      if(i2c_obj->i2c_cfg.i2c_SMBus_Control == 1){
  2188   001F0E  EE20 F00C          	lfsr	2,12
  2189   001F12  51DD               	movf	MSSP_I2C_Init@i2c_obj& (0+255),w,b
  2190   001F14  26D9               	addwf	fsr2l,f,c
  2191   001F16  51DE               	movf	(MSSP_I2C_Init@i2c_obj+1)& (0+255),w,b
  2192   001F18  22DA               	addwfc	fsr2h,f,c
  2193   001F1A  A4DF               	btfss	indf2,2,c
  2194   001F1C  EF92  F00F         	goto	u8101
  2195   001F20  EF94  F00F         	goto	u8100
  2196   001F24                     u8101:
  2197   001F24  EF97  F00F         	goto	l7969
  2198   001F28                     u8100:
  2199   001F28                     
  2200                           ; BSR set to: 0
  2201                           ;MCAL_Layer/I2C/hal_i2c.c: 67:         (SSPSTATbits.CKE = 1);
  2202   001F28  8CC7               	bsf	199,6,c	;volatile
  2203                           
  2204                           ;MCAL_Layer/I2C/hal_i2c.c: 68:     }
  2205   001F2A  EFA5  F00F         	goto	l7973
  2206   001F2E                     l7969:
  2207                           
  2208                           ; BSR set to: 0
  2209   001F2E  EE20 F00C          	lfsr	2,12
  2210   001F32  51DD               	movf	MSSP_I2C_Init@i2c_obj& (0+255),w,b
  2211   001F34  26D9               	addwf	fsr2l,f,c
  2212   001F36  51DE               	movf	(MSSP_I2C_Init@i2c_obj+1)& (0+255),w,b
  2213   001F38  22DA               	addwfc	fsr2h,f,c
  2214   001F3A  B4DF               	btfsc	indf2,2,c
  2215   001F3C  EFA2  F00F         	goto	u8111
  2216   001F40  EFA4  F00F         	goto	u8110
  2217   001F44                     u8111:
  2218   001F44  EFA5  F00F         	goto	l7973
  2219   001F48                     u8110:
  2220   001F48                     
  2221                           ; BSR set to: 0
  2222                           ;MCAL_Layer/I2C/hal_i2c.c: 70:         (SSPSTATbits.CKE = 0);
  2223   001F48  9CC7               	bcf	199,6,c	;volatile
  2224   001F4A                     l7973:
  2225                           
  2226                           ; BSR set to: 0
  2227                           ;MCAL_Layer/I2C/hal_i2c.c: 75:     MSSP_I2C_Interrupt_Configuration(i2c_obj);
  2228   001F4A  C0DD  F004         	movff	MSSP_I2C_Init@i2c_obj,MSSP_I2C_Interrupt_Configuration@i2c_obj
  2229   001F4E  C0DE  F005         	movff	MSSP_I2C_Init@i2c_obj+1,MSSP_I2C_Interrupt_Configuration@i2c_obj+1
  2230   001F52  EC69  F013         	call	_MSSP_I2C_Interrupt_Configuration	;wreg free
  2231   001F56                     
  2232                           ;MCAL_Layer/I2C/hal_i2c.c: 78:     (SSPCON1bits.SSPEN = 1);
  2233   001F56  8AC6               	bsf	198,5,c	;volatile
  2234   001F58                     
  2235                           ;MCAL_Layer/I2C/hal_i2c.c: 79:     ret = (Std_ReturnType)0x01;
  2236   001F58  0E01               	movlw	1
  2237   001F5A  0100               	movlb	0	; () banked
  2238   001F5C  6FDF               	movwf	MSSP_I2C_Init@ret& (0+255),b
  2239   001F5E                     l7979:
  2240                           
  2241                           ; BSR set to: 0
  2242                           ;MCAL_Layer/I2C/hal_i2c.c: 82: return ret;
  2243   001F5E  51DF               	movf	MSSP_I2C_Init@ret& (0+255),w,b
  2244   001F60                     
  2245                           ; BSR set to: 0
  2246   001F60  0012               	return		;funcret
  2247   001F62                     __end_of_MSSP_I2C_Init:
  2248                           	callstack 0
  2249                           
  2250 ;; *************** function _MSSP_I2C_Slave_CFG *****************
  2251 ;; Defined at:
  2252 ;;		line 234 in file "MCAL_Layer/I2C/hal_i2c.c"
  2253 ;; Parameters:    Size  Location     Type
  2254 ;;  i2c_obj         2    3[COMRAM] PTR const struct .
  2255 ;;		 -> i2c_obj(15), 
  2256 ;; Auto vars:     Size  Location     Type
  2257 ;;		None
  2258 ;; Return value:  Size  Location     Type
  2259 ;;                  1    wreg      void 
  2260 ;; Registers used:
  2261 ;;		wreg, fsr2l, fsr2h, status,2, status,0
  2262 ;; Tracked objects:
  2263 ;;		On entry : 0/0
  2264 ;;		On exit  : 0/0
  2265 ;;		Unchanged: 0/0
  2266 ;; Data sizes:     COMRAM   BANK0   BANK1   BANK2   BANK3   BANK4   BANK5   BANK6   BANK7   BANK8   BANK9  BANK10  BANK1
      +1  BANK12  BANK13  BANK14  BANK15
  2267 ;;      Params:         2       0       0       0       0       0       0       0       0       0       0       0       
      +0       0       0       0       0
  2268 ;;      Locals:         0       0       0       0       0       0       0       0       0       0       0       0       
      +0       0       0       0       0
  2269 ;;      Temps:          1       0       0       0       0       0       0       0       0       0       0       0       
      +0       0       0       0       0
  2270 ;;      Totals:         3       0       0       0       0       0       0       0       0       0       0       0       
      +0       0       0       0       0
  2271 ;;Total ram usage:        3 bytes
  2272 ;; Hardware stack levels used: 1
  2273 ;; Hardware stack levels required when called: 3
  2274 ;; This function calls:
  2275 ;;		Nothing
  2276 ;; This function is called by:
  2277 ;;		_MSSP_I2C_Init
  2278 ;; This function uses a non-reentrant model
  2279 ;;
  2280                           
  2281                           	psect	text10
  2282   00281C                     __ptext10:
  2283                           	callstack 0
  2284   00281C                     _MSSP_I2C_Slave_CFG:
  2285                           	callstack 25
  2286   00281C                     
  2287                           ;MCAL_Layer/I2C/hal_i2c.c: 235:     SSPCON1bits.SSPM = i2c_obj->i2c_cfg.i2c_mode_cfg;
  2288   00281C  EE20 F00A          	lfsr	2,10
  2289   002820  5004               	movf	MSSP_I2C_Slave_CFG@i2c_obj^0,w,c
  2290   002822  26D9               	addwf	fsr2l,f,c
  2291   002824  5005               	movf	(MSSP_I2C_Slave_CFG@i2c_obj+1)^0,w,c
  2292   002826  22DA               	addwfc	fsr2h,f,c
  2293   002828  50DF               	movf	indf2,w,c
  2294   00282A  6E06               	movwf	??_MSSP_I2C_Slave_CFG^0,c
  2295   00282C  50C6               	movf	198,w,c	;volatile
  2296   00282E  1806               	xorwf	??_MSSP_I2C_Slave_CFG^0,w,c
  2297   002830  0BF0               	andlw	-16
  2298   002832  1806               	xorwf	??_MSSP_I2C_Slave_CFG^0,w,c
  2299   002834  6EC6               	movwf	198,c	;volatile
  2300   002836  0012               	return		;funcret
  2301   002838                     __end_of_MSSP_I2C_Slave_CFG:
  2302                           	callstack 0
  2303                           
  2304 ;; *************** function _MSSP_I2C_Mode_GPIO_CFG *****************
  2305 ;; Defined at:
  2306 ;;		line 225 in file "MCAL_Layer/I2C/hal_i2c.c"
  2307 ;; Parameters:    Size  Location     Type
  2308 ;;		None
  2309 ;; Auto vars:     Size  Location     Type
  2310 ;;		None
  2311 ;; Return value:  Size  Location     Type
  2312 ;;                  1    wreg      void 
  2313 ;; Registers used:
  2314 ;;		None
  2315 ;; Tracked objects:
  2316 ;;		On entry : 0/0
  2317 ;;		On exit  : 0/0
  2318 ;;		Unchanged: 0/0
  2319 ;; Data sizes:     COMRAM   BANK0   BANK1   BANK2   BANK3   BANK4   BANK5   BANK6   BANK7   BANK8   BANK9  BANK10  BANK1
      +1  BANK12  BANK13  BANK14  BANK15
  2320 ;;      Params:         0       0       0       0       0       0       0       0       0       0       0       0       
      +0       0       0       0       0
  2321 ;;      Locals:         0       0       0       0       0       0       0       0       0       0       0       0       
      +0       0       0       0       0
  2322 ;;      Temps:          0       0       0       0       0       0       0       0       0       0       0       0       
      +0       0       0       0       0
  2323 ;;      Totals:         0       0       0       0       0       0       0       0       0       0       0       0       
      +0       0       0       0       0
  2324 ;;Total ram usage:        0 bytes
  2325 ;; Hardware stack levels used: 1
  2326 ;; Hardware stack levels required when called: 3
  2327 ;; This function calls:
  2328 ;;		Nothing
  2329 ;; This function is called by:
  2330 ;;		_MSSP_I2C_Init
  2331 ;; This function uses a non-reentrant model
  2332 ;;
  2333                           
  2334                           	psect	text11
  2335   0028CC                     __ptext11:
  2336                           	callstack 0
  2337   0028CC                     _MSSP_I2C_Mode_GPIO_CFG:
  2338                           	callstack 25
  2339   0028CC                     
  2340                           ;MCAL_Layer/I2C/hal_i2c.c: 226:     TRISCbits.TRISC3 = 1;
  2341   0028CC  8694               	bsf	148,3,c	;volatile
  2342                           
  2343                           ;MCAL_Layer/I2C/hal_i2c.c: 227:     TRISCbits.TRISC4 = 1;
  2344   0028CE  8894               	bsf	148,4,c	;volatile
  2345   0028D0  0012               	return		;funcret
  2346   0028D2                     __end_of_MSSP_I2C_Mode_GPIO_CFG:
  2347                           	callstack 0
  2348                           
  2349 ;; *************** function _MSSP_I2C_Interrupt_Configuration *****************
  2350 ;; Defined at:
  2351 ;;		line 237 in file "MCAL_Layer/I2C/hal_i2c.c"
  2352 ;; Parameters:    Size  Location     Type
  2353 ;;  i2c_obj         2    3[COMRAM] PTR const struct .
  2354 ;;		 -> i2c_obj(15), 
  2355 ;; Auto vars:     Size  Location     Type
  2356 ;;		None
  2357 ;; Return value:  Size  Location     Type
  2358 ;;                  1    wreg      void 
  2359 ;; Registers used:
  2360 ;;		wreg, fsr2l, fsr2h, status,2, status,0
  2361 ;; Tracked objects:
  2362 ;;		On entry : 0/0
  2363 ;;		On exit  : 0/0
  2364 ;;		Unchanged: 0/0
  2365 ;; Data sizes:     COMRAM   BANK0   BANK1   BANK2   BANK3   BANK4   BANK5   BANK6   BANK7   BANK8   BANK9  BANK10  BANK1
      +1  BANK12  BANK13  BANK14  BANK15
  2366 ;;      Params:         2       0       0       0       0       0       0       0       0       0       0       0       
      +0       0       0       0       0
  2367 ;;      Locals:         0       0       0       0       0       0       0       0       0       0       0       0       
      +0       0       0       0       0
  2368 ;;      Temps:          0       0       0       0       0       0       0       0       0       0       0       0       
      +0       0       0       0       0
  2369 ;;      Totals:         2       0       0       0       0       0       0       0       0       0       0       0       
      +0       0       0       0       0
  2370 ;;Total ram usage:        2 bytes
  2371 ;; Hardware stack levels used: 1
  2372 ;; Hardware stack levels required when called: 3
  2373 ;; This function calls:
  2374 ;;		Nothing
  2375 ;; This function is called by:
  2376 ;;		_MSSP_I2C_Init
  2377 ;; This function uses a non-reentrant model
  2378 ;;
  2379                           
  2380                           	psect	text12
  2381   0026D2                     __ptext12:
  2382                           	callstack 0
  2383   0026D2                     _MSSP_I2C_Interrupt_Configuration:
  2384                           	callstack 25
  2385   0026D2                     
  2386                           ;MCAL_Layer/I2C/hal_i2c.c: 239:     (PIE1bits.SSPIE = 1);
  2387   0026D2  869D               	bsf	157,3,c	;volatile
  2388                           
  2389                           ;MCAL_Layer/I2C/hal_i2c.c: 240:     (PIE2bits.BCLIE = 1);
  2390   0026D4  86A0               	bsf	160,3,c	;volatile
  2391                           
  2392                           ;MCAL_Layer/I2C/hal_i2c.c: 241:     (PIR1bits.SSPIF = 0);
  2393   0026D6  969E               	bcf	158,3,c	;volatile
  2394                           
  2395                           ;MCAL_Layer/I2C/hal_i2c.c: 242:     (PIR2bits.BCLIF = 0);
  2396   0026D8  96A1               	bcf	161,3,c	;volatile
  2397   0026DA                     
  2398                           ;MCAL_Layer/I2C/hal_i2c.c: 243:    I2c_Write_Collision_Interrupt_Hundeler = i2c_obj->I2c
      +                          _Write_Collision;
  2399   0026DA  EE20 F004          	lfsr	2,4
  2400   0026DE  5004               	movf	MSSP_I2C_Interrupt_Configuration@i2c_obj^0,w,c
  2401   0026E0  26D9               	addwf	fsr2l,f,c
  2402   0026E2  5005               	movf	(MSSP_I2C_Interrupt_Configuration@i2c_obj+1)^0,w,c
  2403   0026E4  22DA               	addwfc	fsr2h,f,c
  2404   0026E6  CFDE F090          	movff	postinc2,_I2c_Write_Collision_Interrupt_Hundeler
  2405   0026EA  CFDD F091          	movff	postdec2,_I2c_Write_Collision_Interrupt_Hundeler+1
  2406                           
  2407                           ;MCAL_Layer/I2C/hal_i2c.c: 244:    I2C_Defualt_Interrupt_Hundeler = i2c_obj->I2C_Defualt
      +                          _Interrupt_Hundeler;
  2408   0026EE  EE20 F006          	lfsr	2,6
  2409   0026F2  5004               	movf	MSSP_I2C_Interrupt_Configuration@i2c_obj^0,w,c
  2410   0026F4  26D9               	addwf	fsr2l,f,c
  2411   0026F6  5005               	movf	(MSSP_I2C_Interrupt_Configuration@i2c_obj+1)^0,w,c
  2412   0026F8  22DA               	addwfc	fsr2h,f,c
  2413   0026FA  CFDE F048          	movff	postinc2,_I2C_Defualt_Interrupt_Hundeler
  2414   0026FE  CFDD F049          	movff	postdec2,_I2C_Defualt_Interrupt_Hundeler+1
  2415                           
  2416                           ;MCAL_Layer/I2C/hal_i2c.c: 245:    I2c_Receive_Overflow_Interrupt_Hundeler = i2c_obj->I2
      +                          c_Receive_Overflow;
  2417   002702  EE20 F008          	lfsr	2,8
  2418   002706  5004               	movf	MSSP_I2C_Interrupt_Configuration@i2c_obj^0,w,c
  2419   002708  26D9               	addwf	fsr2l,f,c
  2420   00270A  5005               	movf	(MSSP_I2C_Interrupt_Configuration@i2c_obj+1)^0,w,c
  2421   00270C  22DA               	addwfc	fsr2h,f,c
  2422   00270E  CFDE F08E          	movff	postinc2,_I2c_Receive_Overflow_Interrupt_Hundeler
  2423   002712  CFDD F08F          	movff	postdec2,_I2c_Receive_Overflow_Interrupt_Hundeler+1
  2424   002716                     
  2425                           ;MCAL_Layer/I2C/hal_i2c.c: 268:   (INTCONbits.GIE = 1);
  2426   002716  8EF2               	bsf	242,7,c	;volatile
  2427   002718                     
  2428                           ;MCAL_Layer/I2C/hal_i2c.c: 269:   (INTCONbits.PEIE = 1);
  2429   002718  8CF2               	bsf	242,6,c	;volatile
  2430   00271A  0012               	return		;funcret
  2431   00271C                     __end_of_MSSP_I2C_Interrupt_Configuration:
  2432                           	callstack 0
  2433                           
  2434 ;; *************** function _MSSP_I2C_Clock_CFG *****************
  2435 ;; Defined at:
  2436 ;;		line 230 in file "MCAL_Layer/I2C/hal_i2c.c"
  2437 ;; Parameters:    Size  Location     Type
  2438 ;;  i2c_obj         2   68[COMRAM] PTR const struct .
  2439 ;;		 -> i2c_obj(15), 
  2440 ;; Auto vars:     Size  Location     Type
  2441 ;;		None
  2442 ;; Return value:  Size  Location     Type
  2443 ;;                  1    wreg      void 
  2444 ;; Registers used:
  2445 ;;		wreg, fsr2l, fsr2h, status,2, status,0, cstack
  2446 ;; Tracked objects:
  2447 ;;		On entry : 0/0
  2448 ;;		On exit  : 0/0
  2449 ;;		Unchanged: 0/0
  2450 ;; Data sizes:     COMRAM   BANK0   BANK1   BANK2   BANK3   BANK4   BANK5   BANK6   BANK7   BANK8   BANK9  BANK10  BANK1
      +1  BANK12  BANK13  BANK14  BANK15
  2451 ;;      Params:         2       0       0       0       0       0       0       0       0       0       0       0       
      +0       0       0       0       0
  2452 ;;      Locals:         0       0       0       0       0       0       0       0       0       0       0       0       
      +0       0       0       0       0
  2453 ;;      Temps:          1       0       0       0       0       0       0       0       0       0       0       0       
      +0       0       0       0       0
  2454 ;;      Totals:         3       0       0       0       0       0       0       0       0       0       0       0       
      +0       0       0       0       0
  2455 ;;Total ram usage:        3 bytes
  2456 ;; Hardware stack levels used: 1
  2457 ;; Hardware stack levels required when called: 4
  2458 ;; This function calls:
  2459 ;;		___fladd
  2460 ;;		___fldiv
  2461 ;;		___fltol
  2462 ;;		___xxtofl
  2463 ;; This function is called by:
  2464 ;;		_MSSP_I2C_Init
  2465 ;; This function uses a non-reentrant model
  2466 ;;
  2467                           
  2468                           	psect	text13
  2469   0022E8                     __ptext13:
  2470                           	callstack 0
  2471   0022E8                     _MSSP_I2C_Clock_CFG:
  2472                           	callstack 24
  2473   0022E8                     
  2474                           ;MCAL_Layer/I2C/hal_i2c.c: 231:     SSPCON1bits.SSPM = i2c_obj->i2c_cfg.i2c_mode_cfg;
  2475   0022E8  EE20 F00A          	lfsr	2,10
  2476   0022EC  5045               	movf	MSSP_I2C_Clock_CFG@i2c_obj^0,w,c
  2477   0022EE  26D9               	addwf	fsr2l,f,c
  2478   0022F0  5046               	movf	(MSSP_I2C_Clock_CFG@i2c_obj+1)^0,w,c
  2479   0022F2  22DA               	addwfc	fsr2h,f,c
  2480   0022F4  50DF               	movf	indf2,w,c
  2481   0022F6  6E47               	movwf	??_MSSP_I2C_Clock_CFG^0,c
  2482   0022F8  50C6               	movf	198,w,c	;volatile
  2483   0022FA  1847               	xorwf	??_MSSP_I2C_Clock_CFG^0,w,c
  2484   0022FC  0BF0               	andlw	-16
  2485   0022FE  1847               	xorwf	??_MSSP_I2C_Clock_CFG^0,w,c
  2486   002300  6EC6               	movwf	198,c	;volatile
  2487   002302                     
  2488                           ;MCAL_Layer/I2C/hal_i2c.c: 232:     SSPADD = (uint_8)(((8000000UL/ 4.0)/i2c_obj->i2c_clo
      +                          ck) - 1);
  2489   002302  0E00               	movlw	0
  2490   002304  6E2F               	movwf	___fladd@a^0,c
  2491   002306  0E00               	movlw	0
  2492   002308  6E30               	movwf	(___fladd@a+1)^0,c
  2493   00230A  0E80               	movlw	128
  2494   00230C  6E31               	movwf	(___fladd@a+2)^0,c
  2495   00230E  0EBF               	movlw	191
  2496   002310  6E32               	movwf	(___fladd@a+3)^0,c
  2497   002312  C045  FFD9         	movff	MSSP_I2C_Clock_CFG@i2c_obj,fsr2l
  2498   002316  C046  FFDA         	movff	MSSP_I2C_Clock_CFG@i2c_obj+1,fsr2h
  2499   00231A  CFDE F004          	movff	postinc2,___xxtofl@val
  2500   00231E  CFDE F005          	movff	postinc2,___xxtofl@val+1
  2501   002322  CFDE F006          	movff	postinc2,___xxtofl@val+2
  2502   002326  CFDE F007          	movff	postinc2,___xxtofl@val+3
  2503   00232A  0E00               	movlw	0
  2504   00232C  EC2C  F00E         	call	___xxtofl
  2505   002330  C004  F016         	movff	?___xxtofl,___fldiv@a
  2506   002334  C005  F017         	movff	?___xxtofl+1,___fldiv@a+1
  2507   002338  C006  F018         	movff	?___xxtofl+2,___fldiv@a+2
  2508   00233C  C007  F019         	movff	?___xxtofl+3,___fldiv@a+3
  2509   002340  0E00               	movlw	0
  2510   002342  6E12               	movwf	___fldiv@b^0,c
  2511   002344  0E24               	movlw	36
  2512   002346  6E13               	movwf	(___fldiv@b+1)^0,c
  2513   002348  0EF4               	movlw	244
  2514   00234A  6E14               	movwf	(___fldiv@b+2)^0,c
  2515   00234C  0E49               	movlw	73
  2516   00234E  6E15               	movwf	(___fldiv@b+3)^0,c
  2517   002350  EC5F  F00C         	call	___fldiv	;wreg free
  2518   002354  C012  F02B         	movff	?___fldiv,___fladd@b
  2519   002358  C013  F02C         	movff	?___fldiv+1,___fladd@b+1
  2520   00235C  C014  F02D         	movff	?___fldiv+2,___fladd@b+2
  2521   002360  C015  F02E         	movff	?___fldiv+3,___fladd@b+3
  2522   002364  EC04  F008         	call	___fladd	;wreg free
  2523   002368  C02B  F03B         	movff	?___fladd,___fltol@f1
  2524   00236C  C02C  F03C         	movff	?___fladd+1,___fltol@f1+1
  2525   002370  C02D  F03D         	movff	?___fladd+2,___fltol@f1+2
  2526   002374  C02E  F03E         	movff	?___fladd+3,___fltol@f1+3
  2527   002378  ECF1  F010         	call	___fltol	;wreg free
  2528   00237C  503B               	movf	?___fltol^0,w,c
  2529   00237E  6EC8               	movwf	200,c	;volatile
  2530   002380  0012               	return		;funcret
  2531   002382                     __end_of_MSSP_I2C_Clock_CFG:
  2532                           	callstack 0
  2533                           
  2534 ;; *************** function ___xxtofl *****************
  2535 ;; Defined at:
  2536 ;;		line 10 in file "D:\Embeded-Compiler\pic\sources\c99\common\xxtofl.c"
  2537 ;; Parameters:    Size  Location     Type
  2538 ;;  sign            1    wreg     unsigned char 
  2539 ;;  val             4    3[COMRAM] long 
  2540 ;; Auto vars:     Size  Location     Type
  2541 ;;  sign            1   11[COMRAM] unsigned char 
  2542 ;;  arg             4   13[COMRAM] unsigned long 
  2543 ;;  exp             1   12[COMRAM] unsigned char 
  2544 ;; Return value:  Size  Location     Type
  2545 ;;                  4    3[COMRAM] unsigned char 
  2546 ;; Registers used:
  2547 ;;		wreg, status,2, status,0
  2548 ;; Tracked objects:
  2549 ;;		On entry : 0/0
  2550 ;;		On exit  : 0/0
  2551 ;;		Unchanged: 0/0
  2552 ;; Data sizes:     COMRAM   BANK0   BANK1   BANK2   BANK3   BANK4   BANK5   BANK6   BANK7   BANK8   BANK9  BANK10  BANK1
      +1  BANK12  BANK13  BANK14  BANK15
  2553 ;;      Params:         4       0       0       0       0       0       0       0       0       0       0       0       
      +0       0       0       0       0
  2554 ;;      Locals:         6       0       0       0       0       0       0       0       0       0       0       0       
      +0       0       0       0       0
  2555 ;;      Temps:          4       0       0       0       0       0       0       0       0       0       0       0       
      +0       0       0       0       0
  2556 ;;      Totals:        14       0       0       0       0       0       0       0       0       0       0       0       
      +0       0       0       0       0
  2557 ;;Total ram usage:       14 bytes
  2558 ;; Hardware stack levels used: 1
  2559 ;; Hardware stack levels required when called: 3
  2560 ;; This function calls:
  2561 ;;		Nothing
  2562 ;; This function is called by:
  2563 ;;		_MSSP_I2C_Clock_CFG
  2564 ;;		_CCP_PWM_Init
  2565 ;;		_CCP_PWM_Set_Duty
  2566 ;;		_EUSART_BaudRate_Calculations
  2567 ;; This function uses a non-reentrant model
  2568 ;;
  2569                           
  2570                           	psect	text14
  2571   001C58                     __ptext14:
  2572                           	callstack 0
  2573   001C58                     ___xxtofl:
  2574                           	callstack 24
  2575                           
  2576                           ;incstack = 0
  2577                           ;___xxtofl@sign stored from wreg
  2578   001C58  6E0C               	movwf	___xxtofl@sign^0,c
  2579   001C5A  500C               	movf	___xxtofl@sign^0,w,c
  2580   001C5C  B4D8               	btfsc	status,2,c
  2581   001C5E  EF33  F00E         	goto	u7931
  2582   001C62  EF35  F00E         	goto	u7930
  2583   001C66                     u7931:
  2584   001C66  EF57  F00E         	goto	l2324
  2585   001C6A                     u7930:
  2586   001C6A  BE07               	btfsc	(___xxtofl@val+3)^0,7,c
  2587   001C6C  EF3C  F00E         	goto	u7940
  2588   001C70  EF3A  F00E         	goto	u7941
  2589   001C74                     u7941:
  2590   001C74  EF57  F00E         	goto	l2324
  2591   001C78                     u7940:
  2592   001C78  C004  F008         	movff	___xxtofl@val,??___xxtofl
  2593   001C7C  C005  F009         	movff	___xxtofl@val+1,??___xxtofl+1
  2594   001C80  C006  F00A         	movff	___xxtofl@val+2,??___xxtofl+2
  2595   001C84  C007  F00B         	movff	___xxtofl@val+3,??___xxtofl+3
  2596   001C88  1E08               	comf	??___xxtofl^0,f,c
  2597   001C8A  1E09               	comf	(??___xxtofl+1)^0,f,c
  2598   001C8C  1E0A               	comf	(??___xxtofl+2)^0,f,c
  2599   001C8E  1E0B               	comf	(??___xxtofl+3)^0,f,c
  2600   001C90  2A08               	incf	??___xxtofl^0,f,c
  2601   001C92  0E00               	movlw	0
  2602   001C94  2209               	addwfc	(??___xxtofl+1)^0,f,c
  2603   001C96  220A               	addwfc	(??___xxtofl+2)^0,f,c
  2604   001C98  220B               	addwfc	(??___xxtofl+3)^0,f,c
  2605   001C9A  C008  F00E         	movff	??___xxtofl,___xxtofl@arg
  2606   001C9E  C009  F00F         	movff	??___xxtofl+1,___xxtofl@arg+1
  2607   001CA2  C00A  F010         	movff	??___xxtofl+2,___xxtofl@arg+2
  2608   001CA6  C00B  F011         	movff	??___xxtofl+3,___xxtofl@arg+3
  2609   001CAA  EF5F  F00E         	goto	l7875
  2610   001CAE                     l2324:
  2611   001CAE  C004  F00E         	movff	___xxtofl@val,___xxtofl@arg
  2612   001CB2  C005  F00F         	movff	___xxtofl@val+1,___xxtofl@arg+1
  2613   001CB6  C006  F010         	movff	___xxtofl@val+2,___xxtofl@arg+2
  2614   001CBA  C007  F011         	movff	___xxtofl@val+3,___xxtofl@arg+3
  2615   001CBE                     l7875:
  2616   001CBE  5004               	movf	___xxtofl@val^0,w,c
  2617   001CC0  1005               	iorwf	(___xxtofl@val+1)^0,w,c
  2618   001CC2  1006               	iorwf	(___xxtofl@val+2)^0,w,c
  2619   001CC4  1007               	iorwf	(___xxtofl@val+3)^0,w,c
  2620   001CC6  A4D8               	btfss	status,2,c
  2621   001CC8  EF68  F00E         	goto	u7951
  2622   001CCC  EF6A  F00E         	goto	u7950
  2623   001CD0                     u7951:
  2624   001CD0  EF74  F00E         	goto	l7881
  2625   001CD4                     u7950:
  2626   001CD4  0E00               	movlw	0
  2627   001CD6  6E04               	movwf	?___xxtofl^0,c
  2628   001CD8  0E00               	movlw	0
  2629   001CDA  6E05               	movwf	(?___xxtofl+1)^0,c
  2630   001CDC  0E00               	movlw	0
  2631   001CDE  6E06               	movwf	(?___xxtofl+2)^0,c
  2632   001CE0  0E00               	movlw	0
  2633   001CE2  6E07               	movwf	(?___xxtofl+3)^0,c
  2634   001CE4  EF05  F00F         	goto	l2327
  2635   001CE8                     l7881:
  2636   001CE8  0E96               	movlw	150
  2637   001CEA  6E0D               	movwf	___xxtofl@exp^0,c
  2638   001CEC  EF7E  F00E         	goto	l7885
  2639   001CF0                     l7883:
  2640   001CF0  2A0D               	incf	___xxtofl@exp^0,f,c
  2641   001CF2  90D8               	bcf	status,0,c
  2642   001CF4  3211               	rrcf	(___xxtofl@arg+3)^0,f,c
  2643   001CF6  3210               	rrcf	(___xxtofl@arg+2)^0,f,c
  2644   001CF8  320F               	rrcf	(___xxtofl@arg+1)^0,f,c
  2645   001CFA  320E               	rrcf	___xxtofl@arg^0,f,c
  2646   001CFC                     l7885:
  2647   001CFC  0E00               	movlw	0
  2648   001CFE  140E               	andwf	___xxtofl@arg^0,w,c
  2649   001D00  6E08               	movwf	??___xxtofl^0,c
  2650   001D02  0E00               	movlw	0
  2651   001D04  140F               	andwf	(___xxtofl@arg+1)^0,w,c
  2652   001D06  6E09               	movwf	(??___xxtofl+1)^0,c
  2653   001D08  0E00               	movlw	0
  2654   001D0A  1410               	andwf	(___xxtofl@arg+2)^0,w,c
  2655   001D0C  6E0A               	movwf	(??___xxtofl+2)^0,c
  2656   001D0E  0EFE               	movlw	254
  2657   001D10  1411               	andwf	(___xxtofl@arg+3)^0,w,c
  2658   001D12  6E0B               	movwf	(??___xxtofl+3)^0,c
  2659   001D14  5008               	movf	??___xxtofl^0,w,c
  2660   001D16  1009               	iorwf	(??___xxtofl+1)^0,w,c
  2661   001D18  100A               	iorwf	(??___xxtofl+2)^0,w,c
  2662   001D1A  100B               	iorwf	(??___xxtofl+3)^0,w,c
  2663   001D1C  A4D8               	btfss	status,2,c
  2664   001D1E  EF93  F00E         	goto	u7961
  2665   001D22  EF95  F00E         	goto	u7960
  2666   001D26                     u7961:
  2667   001D26  EF78  F00E         	goto	l7883
  2668   001D2A                     u7960:
  2669   001D2A  EFA3  F00E         	goto	l2331
  2670   001D2E                     l7887:
  2671   001D2E  2A0D               	incf	___xxtofl@exp^0,f,c
  2672   001D30  0E01               	movlw	1
  2673   001D32  260E               	addwf	___xxtofl@arg^0,f,c
  2674   001D34  0E00               	movlw	0
  2675   001D36  220F               	addwfc	(___xxtofl@arg+1)^0,f,c
  2676   001D38  2210               	addwfc	(___xxtofl@arg+2)^0,f,c
  2677   001D3A  2211               	addwfc	(___xxtofl@arg+3)^0,f,c
  2678   001D3C  90D8               	bcf	status,0,c
  2679   001D3E  3211               	rrcf	(___xxtofl@arg+3)^0,f,c
  2680   001D40  3210               	rrcf	(___xxtofl@arg+2)^0,f,c
  2681   001D42  320F               	rrcf	(___xxtofl@arg+1)^0,f,c
  2682   001D44  320E               	rrcf	___xxtofl@arg^0,f,c
  2683   001D46                     l2331:
  2684   001D46  0E00               	movlw	0
  2685   001D48  140E               	andwf	___xxtofl@arg^0,w,c
  2686   001D4A  6E08               	movwf	??___xxtofl^0,c
  2687   001D4C  0E00               	movlw	0
  2688   001D4E  140F               	andwf	(___xxtofl@arg+1)^0,w,c
  2689   001D50  6E09               	movwf	(??___xxtofl+1)^0,c
  2690   001D52  0E00               	movlw	0
  2691   001D54  1410               	andwf	(___xxtofl@arg+2)^0,w,c
  2692   001D56  6E0A               	movwf	(??___xxtofl+2)^0,c
  2693   001D58  0EFF               	movlw	255
  2694   001D5A  1411               	andwf	(___xxtofl@arg+3)^0,w,c
  2695   001D5C  6E0B               	movwf	(??___xxtofl+3)^0,c
  2696   001D5E  5008               	movf	??___xxtofl^0,w,c
  2697   001D60  1009               	iorwf	(??___xxtofl+1)^0,w,c
  2698   001D62  100A               	iorwf	(??___xxtofl+2)^0,w,c
  2699   001D64  100B               	iorwf	(??___xxtofl+3)^0,w,c
  2700   001D66  A4D8               	btfss	status,2,c
  2701   001D68  EFB8  F00E         	goto	u7971
  2702   001D6C  EFBA  F00E         	goto	u7970
  2703   001D70                     u7971:
  2704   001D70  EF97  F00E         	goto	l7887
  2705   001D74                     u7970:
  2706   001D74  EFC2  F00E         	goto	l7895
  2707   001D78                     l7893:
  2708   001D78  060D               	decf	___xxtofl@exp^0,f,c
  2709   001D7A  90D8               	bcf	status,0,c
  2710   001D7C  360E               	rlcf	___xxtofl@arg^0,f,c
  2711   001D7E  360F               	rlcf	(___xxtofl@arg+1)^0,f,c
  2712   001D80  3610               	rlcf	(___xxtofl@arg+2)^0,f,c
  2713   001D82  3611               	rlcf	(___xxtofl@arg+3)^0,f,c
  2714   001D84                     l7895:
  2715   001D84  BE10               	btfsc	(___xxtofl@arg+2)^0,7,c
  2716   001D86  EFC7  F00E         	goto	u7981
  2717   001D8A  EFC9  F00E         	goto	u7980
  2718   001D8E                     u7981:
  2719   001D8E  EFD1  F00E         	goto	l2338
  2720   001D92                     u7980:
  2721   001D92  0E02               	movlw	2
  2722   001D94  600D               	cpfslt	___xxtofl@exp^0,c
  2723   001D96  EFCF  F00E         	goto	u7991
  2724   001D9A  EFD1  F00E         	goto	u7990
  2725   001D9E                     u7991:
  2726   001D9E  EFBC  F00E         	goto	l7893
  2727   001DA2                     u7990:
  2728   001DA2                     l2338:
  2729   001DA2  B00D               	btfsc	___xxtofl@exp^0,0,c
  2730   001DA4  EFD6  F00E         	goto	u8001
  2731   001DA8  EFD8  F00E         	goto	u8000
  2732   001DAC                     u8001:
  2733   001DAC  EFD9  F00E         	goto	l7901
  2734   001DB0                     u8000:
  2735   001DB0  9E10               	bcf	(___xxtofl@arg+2)^0,7,c
  2736   001DB2                     l7901:
  2737   001DB2  90D8               	bcf	status,0,c
  2738   001DB4  320D               	rrcf	___xxtofl@exp^0,f,c
  2739   001DB6  C00D  F008         	movff	___xxtofl@exp,??___xxtofl
  2740   001DBA  6A09               	clrf	(??___xxtofl+1)^0,c
  2741   001DBC  6A0A               	clrf	(??___xxtofl+2)^0,c
  2742   001DBE  6A0B               	clrf	(??___xxtofl+3)^0,c
  2743   001DC0  C008  F00B         	movff	??___xxtofl,??___xxtofl+3
  2744   001DC4  6A0A               	clrf	(??___xxtofl+2)^0,c
  2745   001DC6  6A09               	clrf	(??___xxtofl+1)^0,c
  2746   001DC8  6A08               	clrf	??___xxtofl^0,c
  2747   001DCA  5008               	movf	??___xxtofl^0,w,c
  2748   001DCC  120E               	iorwf	___xxtofl@arg^0,f,c
  2749   001DCE  5009               	movf	(??___xxtofl+1)^0,w,c
  2750   001DD0  120F               	iorwf	(___xxtofl@arg+1)^0,f,c
  2751   001DD2  500A               	movf	(??___xxtofl+2)^0,w,c
  2752   001DD4  1210               	iorwf	(___xxtofl@arg+2)^0,f,c
  2753   001DD6  500B               	movf	(??___xxtofl+3)^0,w,c
  2754   001DD8  1211               	iorwf	(___xxtofl@arg+3)^0,f,c
  2755   001DDA  500C               	movf	___xxtofl@sign^0,w,c
  2756   001DDC  B4D8               	btfsc	status,2,c
  2757   001DDE  EFF3  F00E         	goto	u8011
  2758   001DE2  EFF5  F00E         	goto	u8010
  2759   001DE6                     u8011:
  2760   001DE6  EFFD  F00E         	goto	l7911
  2761   001DEA                     u8010:
  2762   001DEA  BE07               	btfsc	(___xxtofl@val+3)^0,7,c
  2763   001DEC  EFFC  F00E         	goto	u8020
  2764   001DF0  EFFA  F00E         	goto	u8021
  2765   001DF4                     u8021:
  2766   001DF4  EFFD  F00E         	goto	l7911
  2767   001DF8                     u8020:
  2768   001DF8  8E11               	bsf	(___xxtofl@arg+3)^0,7,c
  2769   001DFA                     l7911:
  2770   001DFA  C00E  F004         	movff	___xxtofl@arg,?___xxtofl
  2771   001DFE  C00F  F005         	movff	___xxtofl@arg+1,?___xxtofl+1
  2772   001E02  C010  F006         	movff	___xxtofl@arg+2,?___xxtofl+2
  2773   001E06  C011  F007         	movff	___xxtofl@arg+3,?___xxtofl+3
  2774   001E0A                     l2327:
  2775   001E0A  0012               	return		;funcret
  2776   001E0C                     __end_of___xxtofl:
  2777                           	callstack 0
  2778                           
  2779 ;; *************** function ___fltol *****************
  2780 ;; Defined at:
  2781 ;;		line 43 in file "D:\Embeded-Compiler\pic\sources\c99\common\fltol.c"
  2782 ;; Parameters:    Size  Location     Type
  2783 ;;  f1              4   58[COMRAM] unsigned char 
  2784 ;; Auto vars:     Size  Location     Type
  2785 ;;  exp1            1   67[COMRAM] unsigned char 
  2786 ;;  sign1           1   66[COMRAM] unsigned char 
  2787 ;; Return value:  Size  Location     Type
  2788 ;;                  4   58[COMRAM] long 
  2789 ;; Registers used:
  2790 ;;		wreg, status,2, status,0
  2791 ;; Tracked objects:
  2792 ;;		On entry : 0/0
  2793 ;;		On exit  : 0/0
  2794 ;;		Unchanged: 0/0
  2795 ;; Data sizes:     COMRAM   BANK0   BANK1   BANK2   BANK3   BANK4   BANK5   BANK6   BANK7   BANK8   BANK9  BANK10  BANK1
      +1  BANK12  BANK13  BANK14  BANK15
  2796 ;;      Params:         4       0       0       0       0       0       0       0       0       0       0       0       
      +0       0       0       0       0
  2797 ;;      Locals:         2       0       0       0       0       0       0       0       0       0       0       0       
      +0       0       0       0       0
  2798 ;;      Temps:          4       0       0       0       0       0       0       0       0       0       0       0       
      +0       0       0       0       0
  2799 ;;      Totals:        10       0       0       0       0       0       0       0       0       0       0       0       
      +0       0       0       0       0
  2800 ;;Total ram usage:       10 bytes
  2801 ;; Hardware stack levels used: 1
  2802 ;; Hardware stack levels required when called: 3
  2803 ;; This function calls:
  2804 ;;		Nothing
  2805 ;; This function is called by:
  2806 ;;		_MSSP_I2C_Clock_CFG
  2807 ;;		_CCP_PWM_Init
  2808 ;;		_CCP_PWM_Set_Duty
  2809 ;;		_EUSART_BaudRate_Calculations
  2810 ;; This function uses a non-reentrant model
  2811 ;;
  2812                           
  2813                           	psect	text15
  2814   0021E2                     __ptext15:
  2815                           	callstack 0
  2816   0021E2                     ___fltol:
  2817                           	callstack 24
  2818   0021E2  343D               	rlcf	(___fltol@f1+2)^0,w,c
  2819   0021E4  343E               	rlcf	(___fltol@f1+3)^0,w,c
  2820   0021E6  6E44               	movwf	___fltol@exp1^0,c
  2821   0021E8  5044               	movf	___fltol@exp1^0,w,c
  2822   0021EA  A4D8               	btfss	status,2,c
  2823   0021EC  EFFA  F010         	goto	u7861
  2824   0021F0  EFFC  F010         	goto	u7860
  2825   0021F4                     u7861:
  2826   0021F4  EF06  F011         	goto	l7831
  2827   0021F8                     u7860:
  2828   0021F8                     l7827:
  2829   0021F8  0E00               	movlw	0
  2830   0021FA  6E3B               	movwf	?___fltol^0,c
  2831   0021FC  0E00               	movlw	0
  2832   0021FE  6E3C               	movwf	(?___fltol+1)^0,c
  2833   002200  0E00               	movlw	0
  2834   002202  6E3D               	movwf	(?___fltol+2)^0,c
  2835   002204  0E00               	movlw	0
  2836   002206  6E3E               	movwf	(?___fltol+3)^0,c
  2837   002208  EF73  F011         	goto	l1966
  2838   00220C                     l7831:
  2839   00220C  C03B  F03F         	movff	___fltol@f1,??___fltol
  2840   002210  C03C  F040         	movff	___fltol@f1+1,??___fltol+1
  2841   002214  C03D  F041         	movff	___fltol@f1+2,??___fltol+2
  2842   002218  C03E  F042         	movff	___fltol@f1+3,??___fltol+3
  2843   00221C  0E20               	movlw	32
  2844   00221E  EF16  F011         	goto	u7870
  2845   002222                     u7875:
  2846   002222  90D8               	bcf	status,0,c
  2847   002224  3242               	rrcf	(??___fltol+3)^0,f,c
  2848   002226  3241               	rrcf	(??___fltol+2)^0,f,c
  2849   002228  3240               	rrcf	(??___fltol+1)^0,f,c
  2850   00222A  323F               	rrcf	??___fltol^0,f,c
  2851   00222C                     u7870:
  2852   00222C  2EE8               	decfsz	wreg,f,c
  2853   00222E  EF11  F011         	goto	u7875
  2854   002232  503F               	movf	??___fltol^0,w,c
  2855   002234  6E43               	movwf	___fltol@sign1^0,c
  2856   002236  8E3D               	bsf	(___fltol@f1+2)^0,7,c
  2857   002238  0EFF               	movlw	255
  2858   00223A  163B               	andwf	___fltol@f1^0,f,c
  2859   00223C  0EFF               	movlw	255
  2860   00223E  163C               	andwf	(___fltol@f1+1)^0,f,c
  2861   002240  0EFF               	movlw	255
  2862   002242  163D               	andwf	(___fltol@f1+2)^0,f,c
  2863   002244  0E00               	movlw	0
  2864   002246  163E               	andwf	(___fltol@f1+3)^0,f,c
  2865   002248  0E96               	movlw	150
  2866   00224A  5E44               	subwf	___fltol@exp1^0,f,c
  2867   00224C  BE44               	btfsc	___fltol@exp1^0,7,c
  2868   00224E  EF2D  F011         	goto	u7880
  2869   002252  EF2B  F011         	goto	u7881
  2870   002256                     u7881:
  2871   002256  EF43  F011         	goto	l7851
  2872   00225A                     u7880:
  2873   00225A  5044               	movf	___fltol@exp1^0,w,c
  2874   00225C  0A80               	xorlw	128
  2875   00225E  0F97               	addlw	151
  2876   002260  B0D8               	btfsc	status,0,c
  2877   002262  EF35  F011         	goto	u7891
  2878   002266  EF37  F011         	goto	u7890
  2879   00226A                     u7891:
  2880   00226A  EF39  F011         	goto	l7847
  2881   00226E                     u7890:
  2882   00226E  EFFC  F010         	goto	l7827
  2883   002272                     l7847:
  2884   002272  90D8               	bcf	status,0,c
  2885   002274  323E               	rrcf	(___fltol@f1+3)^0,f,c
  2886   002276  323D               	rrcf	(___fltol@f1+2)^0,f,c
  2887   002278  323C               	rrcf	(___fltol@f1+1)^0,f,c
  2888   00227A  323B               	rrcf	___fltol@f1^0,f,c
  2889   00227C  3E44               	incfsz	___fltol@exp1^0,f,c
  2890   00227E  EF39  F011         	goto	l7847
  2891   002282  EF5B  F011         	goto	l7861
  2892   002286                     l7851:
  2893   002286  0E1F               	movlw	31
  2894   002288  6444               	cpfsgt	___fltol@exp1^0,c
  2895   00228A  EF49  F011         	goto	u7901
  2896   00228E  EF4B  F011         	goto	u7900
  2897   002292                     u7901:
  2898   002292  EF53  F011         	goto	l7859
  2899   002296                     u7900:
  2900   002296  EFFC  F010         	goto	l7827
  2901   00229A                     l7857:
  2902   00229A  90D8               	bcf	status,0,c
  2903   00229C  363B               	rlcf	___fltol@f1^0,f,c
  2904   00229E  363C               	rlcf	(___fltol@f1+1)^0,f,c
  2905   0022A0  363D               	rlcf	(___fltol@f1+2)^0,f,c
  2906   0022A2  363E               	rlcf	(___fltol@f1+3)^0,f,c
  2907   0022A4  0644               	decf	___fltol@exp1^0,f,c
  2908   0022A6                     l7859:
  2909   0022A6  5044               	movf	___fltol@exp1^0,w,c
  2910   0022A8  A4D8               	btfss	status,2,c
  2911   0022AA  EF59  F011         	goto	u7911
  2912   0022AE  EF5B  F011         	goto	u7910
  2913   0022B2                     u7911:
  2914   0022B2  EF4D  F011         	goto	l7857
  2915   0022B6                     u7910:
  2916   0022B6                     l7861:
  2917   0022B6  5043               	movf	___fltol@sign1^0,w,c
  2918   0022B8  B4D8               	btfsc	status,2,c
  2919   0022BA  EF61  F011         	goto	u7921
  2920   0022BE  EF63  F011         	goto	u7920
  2921   0022C2                     u7921:
  2922   0022C2  EF6B  F011         	goto	l7865
  2923   0022C6                     u7920:
  2924   0022C6  1E3E               	comf	(___fltol@f1+3)^0,f,c
  2925   0022C8  1E3D               	comf	(___fltol@f1+2)^0,f,c
  2926   0022CA  1E3C               	comf	(___fltol@f1+1)^0,f,c
  2927   0022CC  6C3B               	negf	___fltol@f1^0,c
  2928   0022CE  0E00               	movlw	0
  2929   0022D0  223C               	addwfc	(___fltol@f1+1)^0,f,c
  2930   0022D2  223D               	addwfc	(___fltol@f1+2)^0,f,c
  2931   0022D4  223E               	addwfc	(___fltol@f1+3)^0,f,c
  2932   0022D6                     l7865:
  2933   0022D6  C03B  F03B         	movff	___fltol@f1,?___fltol
  2934   0022DA  C03C  F03C         	movff	___fltol@f1+1,?___fltol+1
  2935   0022DE  C03D  F03D         	movff	___fltol@f1+2,?___fltol+2
  2936   0022E2  C03E  F03E         	movff	___fltol@f1+3,?___fltol+3
  2937   0022E6                     l1966:
  2938   0022E6  0012               	return		;funcret
  2939   0022E8                     __end_of___fltol:
  2940                           	callstack 0
  2941                           
  2942 ;; *************** function ___fldiv *****************
  2943 ;; Defined at:
  2944 ;;		line 11 in file "D:\Embeded-Compiler\pic\sources\c99\common\sprcdiv.c"
  2945 ;; Parameters:    Size  Location     Type
  2946 ;;  b               4   17[COMRAM] long 
  2947 ;;  a               4   21[COMRAM] long 
  2948 ;; Auto vars:     Size  Location     Type
  2949 ;;  grs             4   36[COMRAM] unsigned long 
  2950 ;;  rem             4   29[COMRAM] unsigned long 
  2951 ;;  new_exp         2   34[COMRAM] short 
  2952 ;;  aexp            1   41[COMRAM] unsigned char 
  2953 ;;  bexp            1   40[COMRAM] unsigned char 
  2954 ;;  sign            1   33[COMRAM] unsigned char 
  2955 ;; Return value:  Size  Location     Type
  2956 ;;                  4   17[COMRAM] unsigned char 
  2957 ;; Registers used:
  2958 ;;		wreg, status,2, status,0
  2959 ;; Tracked objects:
  2960 ;;		On entry : 0/0
  2961 ;;		On exit  : 0/0
  2962 ;;		Unchanged: 0/0
  2963 ;; Data sizes:     COMRAM   BANK0   BANK1   BANK2   BANK3   BANK4   BANK5   BANK6   BANK7   BANK8   BANK9  BANK10  BANK1
      +1  BANK12  BANK13  BANK14  BANK15
  2964 ;;      Params:         8       0       0       0       0       0       0       0       0       0       0       0       
      +0       0       0       0       0
  2965 ;;      Locals:        13       0       0       0       0       0       0       0       0       0       0       0       
      +0       0       0       0       0
  2966 ;;      Temps:          4       0       0       0       0       0       0       0       0       0       0       0       
      +0       0       0       0       0
  2967 ;;      Totals:        25       0       0       0       0       0       0       0       0       0       0       0       
      +0       0       0       0       0
  2968 ;;Total ram usage:       25 bytes
  2969 ;; Hardware stack levels used: 1
  2970 ;; Hardware stack levels required when called: 3
  2971 ;; This function calls:
  2972 ;;		Nothing
  2973 ;; This function is called by:
  2974 ;;		_MSSP_I2C_Clock_CFG
  2975 ;;		_CCP_PWM_Init
  2976 ;;		_CCP_PWM_Set_Duty
  2977 ;;		_EUSART_BaudRate_Calculations
  2978 ;; This function uses a non-reentrant model
  2979 ;;
  2980                           
  2981                           	psect	text16
  2982   0018BE                     __ptext16:
  2983                           	callstack 0
  2984   0018BE                     ___fldiv:
  2985                           	callstack 24
  2986   0018BE  5015               	movf	(___fldiv@b+3)^0,w,c
  2987   0018C0  0B80               	andlw	128
  2988   0018C2  6E22               	movwf	___fldiv@sign^0,c
  2989   0018C4  5015               	movf	(___fldiv@b+3)^0,w,c
  2990   0018C6  2415               	addwf	(___fldiv@b+3)^0,w,c
  2991   0018C8  6E29               	movwf	___fldiv@bexp^0,c
  2992   0018CA  AE14               	btfss	(___fldiv@b+2)^0,7,c
  2993   0018CC  EF6A  F00C         	goto	u7631
  2994   0018D0  EF6C  F00C         	goto	u7630
  2995   0018D4                     u7631:
  2996   0018D4  EF6D  F00C         	goto	l7693
  2997   0018D8                     u7630:
  2998   0018D8  8029               	bsf	___fldiv@bexp^0,0,c
  2999   0018DA                     l7693:
  3000   0018DA  5029               	movf	___fldiv@bexp^0,w,c
  3001   0018DC  B4D8               	btfsc	status,2,c
  3002   0018DE  EF73  F00C         	goto	u7641
  3003   0018E2  EF75  F00C         	goto	u7640
  3004   0018E6                     u7641:
  3005   0018E6  EF8A  F00C         	goto	l7703
  3006   0018EA                     u7640:
  3007   0018EA  2829               	incf	___fldiv@bexp^0,w,c
  3008   0018EC  A4D8               	btfss	status,2,c
  3009   0018EE  EF7B  F00C         	goto	u7651
  3010   0018F2  EF7D  F00C         	goto	u7650
  3011   0018F6                     u7651:
  3012   0018F6  EF85  F00C         	goto	l7699
  3013   0018FA                     u7650:
  3014   0018FA  0E00               	movlw	0
  3015   0018FC  6E12               	movwf	___fldiv@b^0,c
  3016   0018FE  0E00               	movlw	0
  3017   001900  6E13               	movwf	(___fldiv@b+1)^0,c
  3018   001902  0E00               	movlw	0
  3019   001904  6E14               	movwf	(___fldiv@b+2)^0,c
  3020   001906  0E00               	movlw	0
  3021   001908  6E15               	movwf	(___fldiv@b+3)^0,c
  3022   00190A                     l7699:
  3023   00190A  8E14               	bsf	(___fldiv@b+2)^0,7,c
  3024   00190C  0E00               	movlw	0
  3025   00190E  6E15               	movwf	(___fldiv@b+3)^0,c
  3026   001910  EF92  F00C         	goto	l7705
  3027   001914                     l7703:
  3028   001914  0E00               	movlw	0
  3029   001916  6E12               	movwf	___fldiv@b^0,c
  3030   001918  0E00               	movlw	0
  3031   00191A  6E13               	movwf	(___fldiv@b+1)^0,c
  3032   00191C  0E00               	movlw	0
  3033   00191E  6E14               	movwf	(___fldiv@b+2)^0,c
  3034   001920  0E00               	movlw	0
  3035   001922  6E15               	movwf	(___fldiv@b+3)^0,c
  3036   001924                     l7705:
  3037   001924  5019               	movf	(___fldiv@a+3)^0,w,c
  3038   001926  0B80               	andlw	128
  3039   001928  1A22               	xorwf	___fldiv@sign^0,f,c
  3040   00192A  5019               	movf	(___fldiv@a+3)^0,w,c
  3041   00192C  2419               	addwf	(___fldiv@a+3)^0,w,c
  3042   00192E  6E2A               	movwf	___fldiv@aexp^0,c
  3043   001930  AE18               	btfss	(___fldiv@a+2)^0,7,c
  3044   001932  EF9D  F00C         	goto	u7661
  3045   001936  EF9F  F00C         	goto	u7660
  3046   00193A                     u7661:
  3047   00193A  EFA0  F00C         	goto	l7713
  3048   00193E                     u7660:
  3049   00193E  802A               	bsf	___fldiv@aexp^0,0,c
  3050   001940                     l7713:
  3051   001940  502A               	movf	___fldiv@aexp^0,w,c
  3052   001942  B4D8               	btfsc	status,2,c
  3053   001944  EFA6  F00C         	goto	u7671
  3054   001948  EFA8  F00C         	goto	u7670
  3055   00194C                     u7671:
  3056   00194C  EFBD  F00C         	goto	l7723
  3057   001950                     u7670:
  3058   001950  282A               	incf	___fldiv@aexp^0,w,c
  3059   001952  A4D8               	btfss	status,2,c
  3060   001954  EFAE  F00C         	goto	u7681
  3061   001958  EFB0  F00C         	goto	u7680
  3062   00195C                     u7681:
  3063   00195C  EFB8  F00C         	goto	l7719
  3064   001960                     u7680:
  3065   001960  0E00               	movlw	0
  3066   001962  6E16               	movwf	___fldiv@a^0,c
  3067   001964  0E00               	movlw	0
  3068   001966  6E17               	movwf	(___fldiv@a+1)^0,c
  3069   001968  0E00               	movlw	0
  3070   00196A  6E18               	movwf	(___fldiv@a+2)^0,c
  3071   00196C  0E00               	movlw	0
  3072   00196E  6E19               	movwf	(___fldiv@a+3)^0,c
  3073   001970                     l7719:
  3074   001970  8E18               	bsf	(___fldiv@a+2)^0,7,c
  3075   001972  0E00               	movlw	0
  3076   001974  6E19               	movwf	(___fldiv@a+3)^0,c
  3077   001976  EFC5  F00C         	goto	l7725
  3078   00197A                     l7723:
  3079   00197A  0E00               	movlw	0
  3080   00197C  6E16               	movwf	___fldiv@a^0,c
  3081   00197E  0E00               	movlw	0
  3082   001980  6E17               	movwf	(___fldiv@a+1)^0,c
  3083   001982  0E00               	movlw	0
  3084   001984  6E18               	movwf	(___fldiv@a+2)^0,c
  3085   001986  0E00               	movlw	0
  3086   001988  6E19               	movwf	(___fldiv@a+3)^0,c
  3087   00198A                     l7725:
  3088   00198A  5016               	movf	___fldiv@a^0,w,c
  3089   00198C  1017               	iorwf	(___fldiv@a+1)^0,w,c
  3090   00198E  1018               	iorwf	(___fldiv@a+2)^0,w,c
  3091   001990  1019               	iorwf	(___fldiv@a+3)^0,w,c
  3092   001992  A4D8               	btfss	status,2,c
  3093   001994  EFCE  F00C         	goto	u7691
  3094   001998  EFD0  F00C         	goto	u7690
  3095   00199C                     u7691:
  3096   00199C  EFE8  F00C         	goto	l7737
  3097   0019A0                     u7690:
  3098   0019A0  0E00               	movlw	0
  3099   0019A2  6E12               	movwf	___fldiv@b^0,c
  3100   0019A4  0E00               	movlw	0
  3101   0019A6  6E13               	movwf	(___fldiv@b+1)^0,c
  3102   0019A8  0E00               	movlw	0
  3103   0019AA  6E14               	movwf	(___fldiv@b+2)^0,c
  3104   0019AC  0E00               	movlw	0
  3105   0019AE  6E15               	movwf	(___fldiv@b+3)^0,c
  3106   0019B0  0E80               	movlw	128
  3107   0019B2  1214               	iorwf	(___fldiv@b+2)^0,f,c
  3108   0019B4  0E7F               	movlw	127
  3109   0019B6  1215               	iorwf	(___fldiv@b+3)^0,f,c
  3110   0019B8                     l7731:
  3111   0019B8  5022               	movf	___fldiv@sign^0,w,c
  3112   0019BA  1215               	iorwf	(___fldiv@b+3)^0,f,c
  3113   0019BC  C012  F012         	movff	___fldiv@b,?___fldiv
  3114   0019C0  C013  F013         	movff	___fldiv@b+1,?___fldiv+1
  3115   0019C4  C014  F014         	movff	___fldiv@b+2,?___fldiv+2
  3116   0019C8  C015  F015         	movff	___fldiv@b+3,?___fldiv+3
  3117   0019CC  EF2B  F00E         	goto	l2251
  3118   0019D0                     l7737:
  3119   0019D0  5029               	movf	___fldiv@bexp^0,w,c
  3120   0019D2  A4D8               	btfss	status,2,c
  3121   0019D4  EFEE  F00C         	goto	u7701
  3122   0019D8  EFF0  F00C         	goto	u7700
  3123   0019DC                     u7701:
  3124   0019DC  EFFA  F00C         	goto	l7745
  3125   0019E0                     u7700:
  3126   0019E0  0E00               	movlw	0
  3127   0019E2  6E12               	movwf	?___fldiv^0,c
  3128   0019E4  0E00               	movlw	0
  3129   0019E6  6E13               	movwf	(?___fldiv+1)^0,c
  3130   0019E8  0E00               	movlw	0
  3131   0019EA  6E14               	movwf	(?___fldiv+2)^0,c
  3132   0019EC  0E00               	movlw	0
  3133   0019EE  6E15               	movwf	(?___fldiv+3)^0,c
  3134   0019F0  EF2B  F00E         	goto	l2251
  3135   0019F4                     l7745:
  3136   0019F4  502A               	movf	___fldiv@aexp^0,w,c
  3137   0019F6  C029  F01A         	movff	___fldiv@bexp,??___fldiv
  3138   0019FA  6A1B               	clrf	(??___fldiv+1)^0,c
  3139   0019FC  5E1A               	subwf	??___fldiv^0,f,c
  3140   0019FE  0E00               	movlw	0
  3141   001A00  5A1B               	subwfb	(??___fldiv+1)^0,f,c
  3142   001A02  0E7F               	movlw	127
  3143   001A04  241A               	addwf	??___fldiv^0,w,c
  3144   001A06  6E23               	movwf	___fldiv@new_exp^0,c
  3145   001A08  0E00               	movlw	0
  3146   001A0A  201B               	addwfc	(??___fldiv+1)^0,w,c
  3147   001A0C  6E24               	movwf	(___fldiv@new_exp+1)^0,c
  3148   001A0E  C012  F01E         	movff	___fldiv@b,___fldiv@rem
  3149   001A12  C013  F01F         	movff	___fldiv@b+1,___fldiv@rem+1
  3150   001A16  C014  F020         	movff	___fldiv@b+2,___fldiv@rem+2
  3151   001A1A  C015  F021         	movff	___fldiv@b+3,___fldiv@rem+3
  3152   001A1E  0E00               	movlw	0
  3153   001A20  6E12               	movwf	___fldiv@b^0,c
  3154   001A22  0E00               	movlw	0
  3155   001A24  6E13               	movwf	(___fldiv@b+1)^0,c
  3156   001A26  0E00               	movlw	0
  3157   001A28  6E14               	movwf	(___fldiv@b+2)^0,c
  3158   001A2A  0E00               	movlw	0
  3159   001A2C  6E15               	movwf	(___fldiv@b+3)^0,c
  3160   001A2E  0E00               	movlw	0
  3161   001A30  6E25               	movwf	___fldiv@grs^0,c
  3162   001A32  0E00               	movlw	0
  3163   001A34  6E26               	movwf	(___fldiv@grs+1)^0,c
  3164   001A36  0E00               	movlw	0
  3165   001A38  6E27               	movwf	(___fldiv@grs+2)^0,c
  3166   001A3A  0E00               	movlw	0
  3167   001A3C  6E28               	movwf	(___fldiv@grs+3)^0,c
  3168   001A3E  0E00               	movlw	0
  3169   001A40  6E2A               	movwf	___fldiv@aexp^0,c
  3170   001A42  EF5B  F00D         	goto	l2253
  3171   001A46                     l7755:
  3172   001A46  502A               	movf	___fldiv@aexp^0,w,c
  3173   001A48  B4D8               	btfsc	status,2,c
  3174   001A4A  EF29  F00D         	goto	u7711
  3175   001A4E  EF2B  F00D         	goto	u7710
  3176   001A52                     u7711:
  3177   001A52  EF42  F00D         	goto	l7763
  3178   001A56                     u7710:
  3179   001A56  90D8               	bcf	status,0,c
  3180   001A58  361E               	rlcf	___fldiv@rem^0,f,c
  3181   001A5A  361F               	rlcf	(___fldiv@rem+1)^0,f,c
  3182   001A5C  3620               	rlcf	(___fldiv@rem+2)^0,f,c
  3183   001A5E  3621               	rlcf	(___fldiv@rem+3)^0,f,c
  3184   001A60  90D8               	bcf	status,0,c
  3185   001A62  3612               	rlcf	___fldiv@b^0,f,c
  3186   001A64  3613               	rlcf	(___fldiv@b+1)^0,f,c
  3187   001A66  3614               	rlcf	(___fldiv@b+2)^0,f,c
  3188   001A68  3615               	rlcf	(___fldiv@b+3)^0,f,c
  3189   001A6A  AE28               	btfss	(___fldiv@grs+3)^0,7,c
  3190   001A6C  EF3A  F00D         	goto	u7721
  3191   001A70  EF3C  F00D         	goto	u7720
  3192   001A74                     u7721:
  3193   001A74  EF3D  F00D         	goto	l2256
  3194   001A78                     u7720:
  3195   001A78  8012               	bsf	___fldiv@b^0,0,c
  3196   001A7A                     l2256:
  3197   001A7A  90D8               	bcf	status,0,c
  3198   001A7C  3625               	rlcf	___fldiv@grs^0,f,c
  3199   001A7E  3626               	rlcf	(___fldiv@grs+1)^0,f,c
  3200   001A80  3627               	rlcf	(___fldiv@grs+2)^0,f,c
  3201   001A82  3628               	rlcf	(___fldiv@grs+3)^0,f,c
  3202   001A84                     l7763:
  3203   001A84  5016               	movf	___fldiv@a^0,w,c
  3204   001A86  5C1E               	subwf	___fldiv@rem^0,w,c
  3205   001A88  5017               	movf	(___fldiv@a+1)^0,w,c
  3206   001A8A  581F               	subwfb	(___fldiv@rem+1)^0,w,c
  3207   001A8C  5018               	movf	(___fldiv@a+2)^0,w,c
  3208   001A8E  5820               	subwfb	(___fldiv@rem+2)^0,w,c
  3209   001A90  5019               	movf	(___fldiv@a+3)^0,w,c
  3210   001A92  5821               	subwfb	(___fldiv@rem+3)^0,w,c
  3211   001A94  A0D8               	btfss	status,0,c
  3212   001A96  EF4F  F00D         	goto	u7731
  3213   001A9A  EF51  F00D         	goto	u7730
  3214   001A9E                     u7731:
  3215   001A9E  EF5A  F00D         	goto	l7769
  3216   001AA2                     u7730:
  3217   001AA2  8C28               	bsf	(___fldiv@grs+3)^0,6,c
  3218   001AA4  5016               	movf	___fldiv@a^0,w,c
  3219   001AA6  5E1E               	subwf	___fldiv@rem^0,f,c
  3220   001AA8  5017               	movf	(___fldiv@a+1)^0,w,c
  3221   001AAA  5A1F               	subwfb	(___fldiv@rem+1)^0,f,c
  3222   001AAC  5018               	movf	(___fldiv@a+2)^0,w,c
  3223   001AAE  5A20               	subwfb	(___fldiv@rem+2)^0,f,c
  3224   001AB0  5019               	movf	(___fldiv@a+3)^0,w,c
  3225   001AB2  5A21               	subwfb	(___fldiv@rem+3)^0,f,c
  3226   001AB4                     l7769:
  3227   001AB4  2A2A               	incf	___fldiv@aexp^0,f,c
  3228   001AB6                     l2253:
  3229   001AB6  0E19               	movlw	25
  3230   001AB8  642A               	cpfsgt	___fldiv@aexp^0,c
  3231   001ABA  EF61  F00D         	goto	u7741
  3232   001ABE  EF63  F00D         	goto	u7740
  3233   001AC2                     u7741:
  3234   001AC2  EF23  F00D         	goto	l7755
  3235   001AC6                     u7740:
  3236   001AC6  501E               	movf	___fldiv@rem^0,w,c
  3237   001AC8  101F               	iorwf	(___fldiv@rem+1)^0,w,c
  3238   001ACA  1020               	iorwf	(___fldiv@rem+2)^0,w,c
  3239   001ACC  1021               	iorwf	(___fldiv@rem+3)^0,w,c
  3240   001ACE  B4D8               	btfsc	status,2,c
  3241   001AD0  EF6C  F00D         	goto	u7751
  3242   001AD4  EF6E  F00D         	goto	u7750
  3243   001AD8                     u7751:
  3244   001AD8  EF86  F00D         	goto	l7781
  3245   001ADC                     u7750:
  3246   001ADC  8025               	bsf	___fldiv@grs^0,0,c
  3247   001ADE  EF86  F00D         	goto	l7781
  3248   001AE2                     l7775:
  3249   001AE2  90D8               	bcf	status,0,c
  3250   001AE4  3612               	rlcf	___fldiv@b^0,f,c
  3251   001AE6  3613               	rlcf	(___fldiv@b+1)^0,f,c
  3252   001AE8  3614               	rlcf	(___fldiv@b+2)^0,f,c
  3253   001AEA  3615               	rlcf	(___fldiv@b+3)^0,f,c
  3254   001AEC  AE28               	btfss	(___fldiv@grs+3)^0,7,c
  3255   001AEE  EF7B  F00D         	goto	u7761
  3256   001AF2  EF7D  F00D         	goto	u7760
  3257   001AF6                     u7761:
  3258   001AF6  EF7E  F00D         	goto	l2262
  3259   001AFA                     u7760:
  3260   001AFA  8012               	bsf	___fldiv@b^0,0,c
  3261   001AFC                     l2262:
  3262   001AFC  90D8               	bcf	status,0,c
  3263   001AFE  3625               	rlcf	___fldiv@grs^0,f,c
  3264   001B00  3626               	rlcf	(___fldiv@grs+1)^0,f,c
  3265   001B02  3627               	rlcf	(___fldiv@grs+2)^0,f,c
  3266   001B04  3628               	rlcf	(___fldiv@grs+3)^0,f,c
  3267   001B06  0623               	decf	___fldiv@new_exp^0,f,c
  3268   001B08  A0D8               	btfss	status,0,c
  3269   001B0A  0624               	decf	(___fldiv@new_exp+1)^0,f,c
  3270   001B0C                     l7781:
  3271   001B0C  AE14               	btfss	(___fldiv@b+2)^0,7,c
  3272   001B0E  EF8B  F00D         	goto	u7771
  3273   001B12  EF8D  F00D         	goto	u7770
  3274   001B16                     u7771:
  3275   001B16  EF71  F00D         	goto	l7775
  3276   001B1A                     u7770:
  3277   001B1A  0E00               	movlw	0
  3278   001B1C  6E2A               	movwf	___fldiv@aexp^0,c
  3279   001B1E  AE28               	btfss	(___fldiv@grs+3)^0,7,c
  3280   001B20  EF94  F00D         	goto	u7781
  3281   001B24  EF96  F00D         	goto	u7780
  3282   001B28                     u7781:
  3283   001B28  EFBA  F00D         	goto	l2264
  3284   001B2C                     u7780:
  3285   001B2C  0EFF               	movlw	255
  3286   001B2E  1425               	andwf	___fldiv@grs^0,w,c
  3287   001B30  6E1A               	movwf	??___fldiv^0,c
  3288   001B32  0EFF               	movlw	255
  3289   001B34  1426               	andwf	(___fldiv@grs+1)^0,w,c
  3290   001B36  6E1B               	movwf	(??___fldiv+1)^0,c
  3291   001B38  0EFF               	movlw	255
  3292   001B3A  1427               	andwf	(___fldiv@grs+2)^0,w,c
  3293   001B3C  6E1C               	movwf	(??___fldiv+2)^0,c
  3294   001B3E  0E7F               	movlw	127
  3295   001B40  1428               	andwf	(___fldiv@grs+3)^0,w,c
  3296   001B42  6E1D               	movwf	(??___fldiv+3)^0,c
  3297   001B44  501A               	movf	??___fldiv^0,w,c
  3298   001B46  101B               	iorwf	(??___fldiv+1)^0,w,c
  3299   001B48  101C               	iorwf	(??___fldiv+2)^0,w,c
  3300   001B4A  101D               	iorwf	(??___fldiv+3)^0,w,c
  3301   001B4C  B4D8               	btfsc	status,2,c
  3302   001B4E  EFAB  F00D         	goto	u7791
  3303   001B52  EFAD  F00D         	goto	u7790
  3304   001B56                     u7791:
  3305   001B56  EFB1  F00D         	goto	l2265
  3306   001B5A                     u7790:
  3307   001B5A                     l7789:
  3308   001B5A  0E01               	movlw	1
  3309   001B5C  6E2A               	movwf	___fldiv@aexp^0,c
  3310   001B5E  EFBA  F00D         	goto	l2264
  3311   001B62                     l2265:
  3312   001B62  A012               	btfss	___fldiv@b^0,0,c
  3313   001B64  EFB6  F00D         	goto	u7801
  3314   001B68  EFB8  F00D         	goto	u7800
  3315   001B6C                     u7801:
  3316   001B6C  EFBA  F00D         	goto	l2264
  3317   001B70                     u7800:
  3318   001B70  EFAD  F00D         	goto	l7789
  3319   001B74                     l2264:
  3320   001B74  502A               	movf	___fldiv@aexp^0,w,c
  3321   001B76  B4D8               	btfsc	status,2,c
  3322   001B78  EFC0  F00D         	goto	u7811
  3323   001B7C  EFC2  F00D         	goto	u7810
  3324   001B80                     u7811:
  3325   001B80  EFE6  F00D         	goto	l7801
  3326   001B84                     u7810:
  3327   001B84  0E01               	movlw	1
  3328   001B86  2612               	addwf	___fldiv@b^0,f,c
  3329   001B88  0E00               	movlw	0
  3330   001B8A  2213               	addwfc	(___fldiv@b+1)^0,f,c
  3331   001B8C  2214               	addwfc	(___fldiv@b+2)^0,f,c
  3332   001B8E  2215               	addwfc	(___fldiv@b+3)^0,f,c
  3333   001B90  A015               	btfss	(___fldiv@b+3)^0,0,c
  3334   001B92  EFCD  F00D         	goto	u7821
  3335   001B96  EFCF  F00D         	goto	u7820
  3336   001B9A                     u7821:
  3337   001B9A  EFE6  F00D         	goto	l7801
  3338   001B9E                     u7820:
  3339   001B9E  C012  F01A         	movff	___fldiv@b,??___fldiv
  3340   001BA2  C013  F01B         	movff	___fldiv@b+1,??___fldiv+1
  3341   001BA6  C014  F01C         	movff	___fldiv@b+2,??___fldiv+2
  3342   001BAA  C015  F01D         	movff	___fldiv@b+3,??___fldiv+3
  3343   001BAE  341D               	rlcf	(??___fldiv+3)^0,w,c
  3344   001BB0  321D               	rrcf	(??___fldiv+3)^0,f,c
  3345   001BB2  321C               	rrcf	(??___fldiv+2)^0,f,c
  3346   001BB4  321B               	rrcf	(??___fldiv+1)^0,f,c
  3347   001BB6  321A               	rrcf	??___fldiv^0,f,c
  3348   001BB8  C01A  F012         	movff	??___fldiv,___fldiv@b
  3349   001BBC  C01B  F013         	movff	??___fldiv+1,___fldiv@b+1
  3350   001BC0  C01C  F014         	movff	??___fldiv+2,___fldiv@b+2
  3351   001BC4  C01D  F015         	movff	??___fldiv+3,___fldiv@b+3
  3352   001BC8  4A23               	infsnz	___fldiv@new_exp^0,f,c
  3353   001BCA  2A24               	incf	(___fldiv@new_exp+1)^0,f,c
  3354   001BCC                     l7801:
  3355   001BCC  BE24               	btfsc	(___fldiv@new_exp+1)^0,7,c
  3356   001BCE  EFF1  F00D         	goto	u7831
  3357   001BD2  5024               	movf	(___fldiv@new_exp+1)^0,w,c
  3358   001BD4  E108               	bnz	u7830
  3359   001BD6  2823               	incf	___fldiv@new_exp^0,w,c
  3360   001BD8  A0D8               	btfss	status,0,c
  3361   001BDA  EFF1  F00D         	goto	u7831
  3362   001BDE  EFF3  F00D         	goto	u7830
  3363   001BE2                     u7831:
  3364   001BE2  EFFE  F00D         	goto	l7805
  3365   001BE6                     u7830:
  3366   001BE6  0E00               	movlw	0
  3367   001BE8  6E24               	movwf	(___fldiv@new_exp+1)^0,c
  3368   001BEA  6823               	setf	___fldiv@new_exp^0,c
  3369   001BEC  0E00               	movlw	0
  3370   001BEE  6E12               	movwf	___fldiv@b^0,c
  3371   001BF0  0E00               	movlw	0
  3372   001BF2  6E13               	movwf	(___fldiv@b+1)^0,c
  3373   001BF4  0E00               	movlw	0
  3374   001BF6  6E14               	movwf	(___fldiv@b+2)^0,c
  3375   001BF8  0E00               	movlw	0
  3376   001BFA  6E15               	movwf	(___fldiv@b+3)^0,c
  3377   001BFC                     l7805:
  3378   001BFC  BE24               	btfsc	(___fldiv@new_exp+1)^0,7,c
  3379   001BFE  EF0B  F00E         	goto	u7840
  3380   001C02  5024               	movf	(___fldiv@new_exp+1)^0,w,c
  3381   001C04  E106               	bnz	u7841
  3382   001C06  0423               	decf	___fldiv@new_exp^0,w,c
  3383   001C08  B0D8               	btfsc	status,0,c
  3384   001C0A  EF09  F00E         	goto	u7841
  3385   001C0E  EF0B  F00E         	goto	u7840
  3386   001C12                     u7841:
  3387   001C12  EF19  F00E         	goto	l7809
  3388   001C16                     u7840:
  3389   001C16  0E00               	movlw	0
  3390   001C18  6E24               	movwf	(___fldiv@new_exp+1)^0,c
  3391   001C1A  0E00               	movlw	0
  3392   001C1C  6E23               	movwf	___fldiv@new_exp^0,c
  3393   001C1E  0E00               	movlw	0
  3394   001C20  6E12               	movwf	___fldiv@b^0,c
  3395   001C22  0E00               	movlw	0
  3396   001C24  6E13               	movwf	(___fldiv@b+1)^0,c
  3397   001C26  0E00               	movlw	0
  3398   001C28  6E14               	movwf	(___fldiv@b+2)^0,c
  3399   001C2A  0E00               	movlw	0
  3400   001C2C  6E15               	movwf	(___fldiv@b+3)^0,c
  3401   001C2E  0E00               	movlw	0
  3402   001C30  6E22               	movwf	___fldiv@sign^0,c
  3403   001C32                     l7809:
  3404   001C32  C023  F029         	movff	___fldiv@new_exp,___fldiv@bexp
  3405   001C36  A029               	btfss	___fldiv@bexp^0,0,c
  3406   001C38  EF20  F00E         	goto	u7851
  3407   001C3C  EF22  F00E         	goto	u7850
  3408   001C40                     u7851:
  3409   001C40  EF25  F00E         	goto	l7815
  3410   001C44                     u7850:
  3411   001C44  8E14               	bsf	(___fldiv@b+2)^0,7,c
  3412   001C46  EF26  F00E         	goto	l7817
  3413   001C4A                     l7815:
  3414   001C4A  9E14               	bcf	(___fldiv@b+2)^0,7,c
  3415   001C4C                     l7817:
  3416   001C4C  90D8               	bcf	status,0,c
  3417   001C4E  3029               	rrcf	___fldiv@bexp^0,w,c
  3418   001C50  6E15               	movwf	(___fldiv@b+3)^0,c
  3419   001C52  EFDC  F00C         	goto	l7731
  3420   001C56                     l2251:
  3421   001C56  0012               	return		;funcret
  3422   001C58                     __end_of___fldiv:
  3423                           	callstack 0
  3424                           
  3425 ;; *************** function ___fladd *****************
  3426 ;; Defined at:
  3427 ;;		line 10 in file "D:\Embeded-Compiler\pic\sources\c99\common\sprcadd.c"
  3428 ;; Parameters:    Size  Location     Type
  3429 ;;  b               4   42[COMRAM] unsigned char 
  3430 ;;  a               4   46[COMRAM] unsigned char 
  3431 ;; Auto vars:     Size  Location     Type
  3432 ;;  grs             1   57[COMRAM] unsigned char 
  3433 ;;  bexp            1   56[COMRAM] unsigned char 
  3434 ;;  aexp            1   55[COMRAM] unsigned char 
  3435 ;;  signs           1   54[COMRAM] unsigned char 
  3436 ;; Return value:  Size  Location     Type
  3437 ;;                  4   42[COMRAM] unsigned char 
  3438 ;; Registers used:
  3439 ;;		wreg, status,2, status,0
  3440 ;; Tracked objects:
  3441 ;;		On entry : 0/0
  3442 ;;		On exit  : 0/0
  3443 ;;		Unchanged: 0/0
  3444 ;; Data sizes:     COMRAM   BANK0   BANK1   BANK2   BANK3   BANK4   BANK5   BANK6   BANK7   BANK8   BANK9  BANK10  BANK1
      +1  BANK12  BANK13  BANK14  BANK15
  3445 ;;      Params:         8       0       0       0       0       0       0       0       0       0       0       0       
      +0       0       0       0       0
  3446 ;;      Locals:         4       0       0       0       0       0       0       0       0       0       0       0       
      +0       0       0       0       0
  3447 ;;      Temps:          4       0       0       0       0       0       0       0       0       0       0       0       
      +0       0       0       0       0
  3448 ;;      Totals:        16       0       0       0       0       0       0       0       0       0       0       0       
      +0       0       0       0       0
  3449 ;;Total ram usage:       16 bytes
  3450 ;; Hardware stack levels used: 1
  3451 ;; Hardware stack levels required when called: 3
  3452 ;; This function calls:
  3453 ;;		Nothing
  3454 ;; This function is called by:
  3455 ;;		_MSSP_I2C_Clock_CFG
  3456 ;;		_CCP_PWM_Init
  3457 ;;		_EUSART_BaudRate_Calculations
  3458 ;; This function uses a non-reentrant model
  3459 ;;
  3460                           
  3461                           	psect	text17
  3462   001008                     __ptext17:
  3463                           	callstack 0
  3464   001008                     ___fladd:
  3465                           	callstack 24
  3466   001008  502E               	movf	(___fladd@b+3)^0,w,c
  3467   00100A  0B80               	andlw	128
  3468   00100C  6E37               	movwf	___fladd@signs^0,c
  3469   00100E  502E               	movf	(___fladd@b+3)^0,w,c
  3470   001010  242E               	addwf	(___fladd@b+3)^0,w,c
  3471   001012  6E39               	movwf	___fladd@bexp^0,c
  3472   001014  AE2D               	btfss	(___fladd@b+2)^0,7,c
  3473   001016  EF0F  F008         	goto	u7241
  3474   00101A  EF11  F008         	goto	u7240
  3475   00101E                     u7241:
  3476   00101E  EF12  F008         	goto	l7491
  3477   001022                     u7240:
  3478   001022  8039               	bsf	___fladd@bexp^0,0,c
  3479   001024                     l7491:
  3480   001024  5039               	movf	___fladd@bexp^0,w,c
  3481   001026  B4D8               	btfsc	status,2,c
  3482   001028  EF18  F008         	goto	u7251
  3483   00102C  EF1A  F008         	goto	u7250
  3484   001030                     u7251:
  3485   001030  EF2F  F008         	goto	l7501
  3486   001034                     u7250:
  3487   001034  2839               	incf	___fladd@bexp^0,w,c
  3488   001036  A4D8               	btfss	status,2,c
  3489   001038  EF20  F008         	goto	u7261
  3490   00103C  EF22  F008         	goto	u7260
  3491   001040                     u7261:
  3492   001040  EF2A  F008         	goto	l7497
  3493   001044                     u7260:
  3494   001044  0E00               	movlw	0
  3495   001046  6E2B               	movwf	___fladd@b^0,c
  3496   001048  0E00               	movlw	0
  3497   00104A  6E2C               	movwf	(___fladd@b+1)^0,c
  3498   00104C  0E00               	movlw	0
  3499   00104E  6E2D               	movwf	(___fladd@b+2)^0,c
  3500   001050  0E00               	movlw	0
  3501   001052  6E2E               	movwf	(___fladd@b+3)^0,c
  3502   001054                     l7497:
  3503   001054  8E2D               	bsf	(___fladd@b+2)^0,7,c
  3504   001056  0E00               	movlw	0
  3505   001058  6E2E               	movwf	(___fladd@b+3)^0,c
  3506   00105A  EF37  F008         	goto	l7503
  3507   00105E                     l7501:
  3508   00105E  0E00               	movlw	0
  3509   001060  6E2B               	movwf	___fladd@b^0,c
  3510   001062  0E00               	movlw	0
  3511   001064  6E2C               	movwf	(___fladd@b+1)^0,c
  3512   001066  0E00               	movlw	0
  3513   001068  6E2D               	movwf	(___fladd@b+2)^0,c
  3514   00106A  0E00               	movlw	0
  3515   00106C  6E2E               	movwf	(___fladd@b+3)^0,c
  3516   00106E                     l7503:
  3517   00106E  5032               	movf	(___fladd@a+3)^0,w,c
  3518   001070  0B80               	andlw	128
  3519   001072  6E38               	movwf	___fladd@aexp^0,c
  3520   001074  5037               	movf	___fladd@signs^0,w,c
  3521   001076  1838               	xorwf	___fladd@aexp^0,w,c
  3522   001078  B4D8               	btfsc	status,2,c
  3523   00107A  EF41  F008         	goto	u7271
  3524   00107E  EF43  F008         	goto	u7270
  3525   001082                     u7271:
  3526   001082  EF44  F008         	goto	l7509
  3527   001086                     u7270:
  3528   001086  8C37               	bsf	___fladd@signs^0,6,c
  3529   001088                     l7509:
  3530   001088  5032               	movf	(___fladd@a+3)^0,w,c
  3531   00108A  2432               	addwf	(___fladd@a+3)^0,w,c
  3532   00108C  6E38               	movwf	___fladd@aexp^0,c
  3533   00108E  AE31               	btfss	(___fladd@a+2)^0,7,c
  3534   001090  EF4C  F008         	goto	u7281
  3535   001094  EF4E  F008         	goto	u7280
  3536   001098                     u7281:
  3537   001098  EF4F  F008         	goto	l7515
  3538   00109C                     u7280:
  3539   00109C  8038               	bsf	___fladd@aexp^0,0,c
  3540   00109E                     l7515:
  3541   00109E  5038               	movf	___fladd@aexp^0,w,c
  3542   0010A0  B4D8               	btfsc	status,2,c
  3543   0010A2  EF55  F008         	goto	u7291
  3544   0010A6  EF57  F008         	goto	u7290
  3545   0010AA                     u7291:
  3546   0010AA  EF6C  F008         	goto	l7525
  3547   0010AE                     u7290:
  3548   0010AE  2838               	incf	___fladd@aexp^0,w,c
  3549   0010B0  A4D8               	btfss	status,2,c
  3550   0010B2  EF5D  F008         	goto	u7301
  3551   0010B6  EF5F  F008         	goto	u7300
  3552   0010BA                     u7301:
  3553   0010BA  EF67  F008         	goto	l7521
  3554   0010BE                     u7300:
  3555   0010BE  0E00               	movlw	0
  3556   0010C0  6E2F               	movwf	___fladd@a^0,c
  3557   0010C2  0E00               	movlw	0
  3558   0010C4  6E30               	movwf	(___fladd@a+1)^0,c
  3559   0010C6  0E00               	movlw	0
  3560   0010C8  6E31               	movwf	(___fladd@a+2)^0,c
  3561   0010CA  0E00               	movlw	0
  3562   0010CC  6E32               	movwf	(___fladd@a+3)^0,c
  3563   0010CE                     l7521:
  3564   0010CE  8E31               	bsf	(___fladd@a+2)^0,7,c
  3565   0010D0  0E00               	movlw	0
  3566   0010D2  6E32               	movwf	(___fladd@a+3)^0,c
  3567   0010D4  EF74  F008         	goto	l7527
  3568   0010D8                     l7525:
  3569   0010D8  0E00               	movlw	0
  3570   0010DA  6E2F               	movwf	___fladd@a^0,c
  3571   0010DC  0E00               	movlw	0
  3572   0010DE  6E30               	movwf	(___fladd@a+1)^0,c
  3573   0010E0  0E00               	movlw	0
  3574   0010E2  6E31               	movwf	(___fladd@a+2)^0,c
  3575   0010E4  0E00               	movlw	0
  3576   0010E6  6E32               	movwf	(___fladd@a+3)^0,c
  3577   0010E8                     l7527:
  3578   0010E8  5039               	movf	___fladd@bexp^0,w,c
  3579   0010EA  5C38               	subwf	___fladd@aexp^0,w,c
  3580   0010EC  B0D8               	btfsc	status,0,c
  3581   0010EE  EF7B  F008         	goto	u7311
  3582   0010F2  EF7D  F008         	goto	u7310
  3583   0010F6                     u7311:
  3584   0010F6  EFA4  F008         	goto	l7563
  3585   0010FA                     u7310:
  3586   0010FA  AC37               	btfss	___fladd@signs^0,6,c
  3587   0010FC  EF82  F008         	goto	u7321
  3588   001100  EF84  F008         	goto	u7320
  3589   001104                     u7321:
  3590   001104  EF86  F008         	goto	l7533
  3591   001108                     u7320:
  3592   001108  0E80               	movlw	128
  3593   00110A  1A37               	xorwf	___fladd@signs^0,f,c
  3594   00110C                     l7533:
  3595   00110C  C039  F03A         	movff	___fladd@bexp,___fladd@grs
  3596   001110  C038  F039         	movff	___fladd@aexp,___fladd@bexp
  3597   001114  C03A  F038         	movff	___fladd@grs,___fladd@aexp
  3598   001118  C02B  F03A         	movff	___fladd@b,___fladd@grs
  3599   00111C  C02F  F02B         	movff	___fladd@a,___fladd@b
  3600   001120  C03A  F02F         	movff	___fladd@grs,___fladd@a
  3601   001124  C02C  F03A         	movff	___fladd@b+1,___fladd@grs
  3602   001128  C030  F02C         	movff	___fladd@a+1,___fladd@b+1
  3603   00112C  C03A  F030         	movff	___fladd@grs,___fladd@a+1
  3604   001130  C02D  F03A         	movff	___fladd@b+2,___fladd@grs
  3605   001134  C031  F02D         	movff	___fladd@a+2,___fladd@b+2
  3606   001138  C03A  F031         	movff	___fladd@grs,___fladd@a+2
  3607   00113C  C02E  F03A         	movff	___fladd@b+3,___fladd@grs
  3608   001140  C032  F02E         	movff	___fladd@a+3,___fladd@b+3
  3609   001144  C03A  F032         	movff	___fladd@grs,___fladd@a+3
  3610   001148                     l7563:
  3611   001148  0E00               	movlw	0
  3612   00114A  6E3A               	movwf	___fladd@grs^0,c
  3613   00114C  5039               	movf	___fladd@bexp^0,w,c
  3614   00114E  C038  F033         	movff	___fladd@aexp,??___fladd
  3615   001152  6A34               	clrf	(??___fladd+1)^0,c
  3616   001154  5E33               	subwf	??___fladd^0,f,c
  3617   001156  0E00               	movlw	0
  3618   001158  5A34               	subwfb	(??___fladd+1)^0,f,c
  3619   00115A  BE34               	btfsc	(??___fladd+1)^0,7,c
  3620   00115C  EFB9  F008         	goto	u7331
  3621   001160  5034               	movf	(??___fladd+1)^0,w,c
  3622   001162  E109               	bnz	u7330
  3623   001164  0E1A               	movlw	26
  3624   001166  5C33               	subwf	??___fladd^0,w,c
  3625   001168  A0D8               	btfss	status,0,c
  3626   00116A  EFB9  F008         	goto	u7331
  3627   00116E  EFBB  F008         	goto	u7330
  3628   001172                     u7331:
  3629   001172  EFF2  F008         	goto	l2198
  3630   001176                     u7330:
  3631   001176  502B               	movf	___fladd@b^0,w,c
  3632   001178  102C               	iorwf	(___fladd@b+1)^0,w,c
  3633   00117A  102D               	iorwf	(___fladd@b+2)^0,w,c
  3634   00117C  102E               	iorwf	(___fladd@b+3)^0,w,c
  3635   00117E  A4D8               	btfss	status,2,c
  3636   001180  EFC4  F008         	goto	u7341
  3637   001184  EFC7  F008         	goto	u7340
  3638   001188                     u7341:
  3639   001188  0E01               	movlw	1
  3640   00118A  EFC8  F008         	goto	u7350
  3641   00118E                     u7340:
  3642   00118E  0E00               	movlw	0
  3643   001190                     u7350:
  3644   001190  6E3A               	movwf	___fladd@grs^0,c
  3645   001192  0E00               	movlw	0
  3646   001194  6E2B               	movwf	___fladd@b^0,c
  3647   001196  0E00               	movlw	0
  3648   001198  6E2C               	movwf	(___fladd@b+1)^0,c
  3649   00119A  0E00               	movlw	0
  3650   00119C  6E2D               	movwf	(___fladd@b+2)^0,c
  3651   00119E  0E00               	movlw	0
  3652   0011A0  6E2E               	movwf	(___fladd@b+3)^0,c
  3653   0011A2  C038  F039         	movff	___fladd@aexp,___fladd@bexp
  3654   0011A6  EFFB  F008         	goto	l2197
  3655   0011AA                     l2199:
  3656   0011AA  A03A               	btfss	___fladd@grs^0,0,c
  3657   0011AC  EFDA  F008         	goto	u7361
  3658   0011B0  EFDC  F008         	goto	u7360
  3659   0011B4                     u7361:
  3660   0011B4  EFE2  F008         	goto	l7575
  3661   0011B8                     u7360:
  3662   0011B8  90D8               	bcf	status,0,c
  3663   0011BA  303A               	rrcf	___fladd@grs^0,w,c
  3664   0011BC  0901               	iorlw	1
  3665   0011BE  6E3A               	movwf	___fladd@grs^0,c
  3666   0011C0  EFE4  F008         	goto	l7577
  3667   0011C4                     l7575:
  3668   0011C4  90D8               	bcf	status,0,c
  3669   0011C6  323A               	rrcf	___fladd@grs^0,f,c
  3670   0011C8                     l7577:
  3671   0011C8  A02B               	btfss	___fladd@b^0,0,c
  3672   0011CA  EFE9  F008         	goto	u7371
  3673   0011CE  EFEB  F008         	goto	u7370
  3674   0011D2                     u7371:
  3675   0011D2  EFEC  F008         	goto	l7581
  3676   0011D6                     u7370:
  3677   0011D6  8E3A               	bsf	___fladd@grs^0,7,c
  3678   0011D8                     l7581:
  3679   0011D8  342E               	rlcf	(___fladd@b+3)^0,w,c
  3680   0011DA  322E               	rrcf	(___fladd@b+3)^0,f,c
  3681   0011DC  322D               	rrcf	(___fladd@b+2)^0,f,c
  3682   0011DE  322C               	rrcf	(___fladd@b+1)^0,f,c
  3683   0011E0  322B               	rrcf	___fladd@b^0,f,c
  3684   0011E2  2A39               	incf	___fladd@bexp^0,f,c
  3685   0011E4                     l2198:
  3686   0011E4  5038               	movf	___fladd@aexp^0,w,c
  3687   0011E6  5C39               	subwf	___fladd@bexp^0,w,c
  3688   0011E8  A0D8               	btfss	status,0,c
  3689   0011EA  EFF9  F008         	goto	u7381
  3690   0011EE  EFFB  F008         	goto	u7380
  3691   0011F2                     u7381:
  3692   0011F2  EFD5  F008         	goto	l2199
  3693   0011F6                     u7380:
  3694   0011F6                     l2197:
  3695   0011F6  BC37               	btfsc	___fladd@signs^0,6,c
  3696   0011F8  EF00  F009         	goto	u7391
  3697   0011FC  EF02  F009         	goto	u7390
  3698   001200                     u7391:
  3699   001200  EF42  F009         	goto	l7609
  3700   001204                     u7390:
  3701   001204  5039               	movf	___fladd@bexp^0,w,c
  3702   001206  A4D8               	btfss	status,2,c
  3703   001208  EF08  F009         	goto	u7401
  3704   00120C  EF0A  F009         	goto	u7400
  3705   001210                     u7401:
  3706   001210  EF14  F009         	goto	l7591
  3707   001214                     u7400:
  3708   001214  0E00               	movlw	0
  3709   001216  6E2B               	movwf	?___fladd^0,c
  3710   001218  0E00               	movlw	0
  3711   00121A  6E2C               	movwf	(?___fladd+1)^0,c
  3712   00121C  0E00               	movlw	0
  3713   00121E  6E2D               	movwf	(?___fladd+2)^0,c
  3714   001220  0E00               	movlw	0
  3715   001222  6E2E               	movwf	(?___fladd+3)^0,c
  3716   001224  EF63  F00A         	goto	l2206
  3717   001228                     l7591:
  3718   001228  502F               	movf	___fladd@a^0,w,c
  3719   00122A  262B               	addwf	___fladd@b^0,f,c
  3720   00122C  5030               	movf	(___fladd@a+1)^0,w,c
  3721   00122E  222C               	addwfc	(___fladd@b+1)^0,f,c
  3722   001230  5031               	movf	(___fladd@a+2)^0,w,c
  3723   001232  222D               	addwfc	(___fladd@b+2)^0,f,c
  3724   001234  5032               	movf	(___fladd@a+3)^0,w,c
  3725   001236  222E               	addwfc	(___fladd@b+3)^0,f,c
  3726   001238  A02E               	btfss	(___fladd@b+3)^0,0,c
  3727   00123A  EF21  F009         	goto	u7411
  3728   00123E  EF23  F009         	goto	u7410
  3729   001242                     u7411:
  3730   001242  EFCF  F009         	goto	l7645
  3731   001246                     u7410:
  3732   001246  A03A               	btfss	___fladd@grs^0,0,c
  3733   001248  EF28  F009         	goto	u7421
  3734   00124C  EF2A  F009         	goto	u7420
  3735   001250                     u7421:
  3736   001250  EF30  F009         	goto	l7599
  3737   001254                     u7420:
  3738   001254  90D8               	bcf	status,0,c
  3739   001256  303A               	rrcf	___fladd@grs^0,w,c
  3740   001258  0901               	iorlw	1
  3741   00125A  6E3A               	movwf	___fladd@grs^0,c
  3742   00125C  EF32  F009         	goto	l7601
  3743   001260                     l7599:
  3744   001260  90D8               	bcf	status,0,c
  3745   001262  323A               	rrcf	___fladd@grs^0,f,c
  3746   001264                     l7601:
  3747   001264  A02B               	btfss	___fladd@b^0,0,c
  3748   001266  EF37  F009         	goto	u7431
  3749   00126A  EF39  F009         	goto	u7430
  3750   00126E                     u7431:
  3751   00126E  EF3A  F009         	goto	l7605
  3752   001272                     u7430:
  3753   001272  8E3A               	bsf	___fladd@grs^0,7,c
  3754   001274                     l7605:
  3755   001274  342E               	rlcf	(___fladd@b+3)^0,w,c
  3756   001276  322E               	rrcf	(___fladd@b+3)^0,f,c
  3757   001278  322D               	rrcf	(___fladd@b+2)^0,f,c
  3758   00127A  322C               	rrcf	(___fladd@b+1)^0,f,c
  3759   00127C  322B               	rrcf	___fladd@b^0,f,c
  3760   00127E  2A39               	incf	___fladd@bexp^0,f,c
  3761   001280  EFCF  F009         	goto	l7645
  3762   001284                     l7609:
  3763   001284  502F               	movf	___fladd@a^0,w,c
  3764   001286  5C2B               	subwf	___fladd@b^0,w,c
  3765   001288  5030               	movf	(___fladd@a+1)^0,w,c
  3766   00128A  582C               	subwfb	(___fladd@b+1)^0,w,c
  3767   00128C  5031               	movf	(___fladd@a+2)^0,w,c
  3768   00128E  582D               	subwfb	(___fladd@b+2)^0,w,c
  3769   001290  502E               	movf	(___fladd@b+3)^0,w,c
  3770   001292  0A80               	xorlw	128
  3771   001294  6E33               	movwf	??___fladd^0,c
  3772   001296  5032               	movf	(___fladd@a+3)^0,w,c
  3773   001298  0A80               	xorlw	128
  3774   00129A  5833               	subwfb	??___fladd^0,w,c
  3775   00129C  B0D8               	btfsc	status,0,c
  3776   00129E  EF53  F009         	goto	u7441
  3777   0012A2  EF55  F009         	goto	u7440
  3778   0012A6                     u7441:
  3779   0012A6  EF80  F009         	goto	l7619
  3780   0012AA                     u7440:
  3781   0012AA  502B               	movf	___fladd@b^0,w,c
  3782   0012AC  5C2F               	subwf	___fladd@a^0,w,c
  3783   0012AE  6E33               	movwf	??___fladd^0,c
  3784   0012B0  502C               	movf	(___fladd@b+1)^0,w,c
  3785   0012B2  5830               	subwfb	(___fladd@a+1)^0,w,c
  3786   0012B4  6E34               	movwf	(??___fladd+1)^0,c
  3787   0012B6  502D               	movf	(___fladd@b+2)^0,w,c
  3788   0012B8  5831               	subwfb	(___fladd@a+2)^0,w,c
  3789   0012BA  6E35               	movwf	(??___fladd+2)^0,c
  3790   0012BC  502E               	movf	(___fladd@b+3)^0,w,c
  3791   0012BE  5832               	subwfb	(___fladd@a+3)^0,w,c
  3792   0012C0  6E36               	movwf	(??___fladd+3)^0,c
  3793   0012C2  0EFF               	movlw	255
  3794   0012C4  2433               	addwf	??___fladd^0,w,c
  3795   0012C6  6E2B               	movwf	___fladd@b^0,c
  3796   0012C8  0EFF               	movlw	255
  3797   0012CA  2034               	addwfc	(??___fladd+1)^0,w,c
  3798   0012CC  6E2C               	movwf	(___fladd@b+1)^0,c
  3799   0012CE  0EFF               	movlw	255
  3800   0012D0  2035               	addwfc	(??___fladd+2)^0,w,c
  3801   0012D2  6E2D               	movwf	(___fladd@b+2)^0,c
  3802   0012D4  0EFF               	movlw	255
  3803   0012D6  2036               	addwfc	(??___fladd+3)^0,w,c
  3804   0012D8  6E2E               	movwf	(___fladd@b+3)^0,c
  3805   0012DA  0E80               	movlw	128
  3806   0012DC  1A37               	xorwf	___fladd@signs^0,f,c
  3807   0012DE  6C3A               	negf	___fladd@grs^0,c
  3808   0012E0  503A               	movf	___fladd@grs^0,w,c
  3809   0012E2  A4D8               	btfss	status,2,c
  3810   0012E4  EF76  F009         	goto	u7451
  3811   0012E8  EF78  F009         	goto	u7450
  3812   0012EC                     u7451:
  3813   0012EC  EF88  F009         	goto	l2214
  3814   0012F0                     u7450:
  3815   0012F0  0E01               	movlw	1
  3816   0012F2  262B               	addwf	___fladd@b^0,f,c
  3817   0012F4  0E00               	movlw	0
  3818   0012F6  222C               	addwfc	(___fladd@b+1)^0,f,c
  3819   0012F8  222D               	addwfc	(___fladd@b+2)^0,f,c
  3820   0012FA  222E               	addwfc	(___fladd@b+3)^0,f,c
  3821   0012FC  EF88  F009         	goto	l2214
  3822   001300                     l7619:
  3823   001300  502F               	movf	___fladd@a^0,w,c
  3824   001302  5E2B               	subwf	___fladd@b^0,f,c
  3825   001304  5030               	movf	(___fladd@a+1)^0,w,c
  3826   001306  5A2C               	subwfb	(___fladd@b+1)^0,f,c
  3827   001308  5031               	movf	(___fladd@a+2)^0,w,c
  3828   00130A  5A2D               	subwfb	(___fladd@b+2)^0,f,c
  3829   00130C  5032               	movf	(___fladd@a+3)^0,w,c
  3830   00130E  5A2E               	subwfb	(___fladd@b+3)^0,f,c
  3831   001310                     l2214:
  3832   001310  502B               	movf	___fladd@b^0,w,c
  3833   001312  102C               	iorwf	(___fladd@b+1)^0,w,c
  3834   001314  102D               	iorwf	(___fladd@b+2)^0,w,c
  3835   001316  102E               	iorwf	(___fladd@b+3)^0,w,c
  3836   001318  A4D8               	btfss	status,2,c
  3837   00131A  EF91  F009         	goto	u7461
  3838   00131E  EF93  F009         	goto	u7460
  3839   001322                     u7461:
  3840   001322  EFC8  F009         	goto	l7643
  3841   001326                     u7460:
  3842   001326  503A               	movf	___fladd@grs^0,w,c
  3843   001328  A4D8               	btfss	status,2,c
  3844   00132A  EF99  F009         	goto	u7471
  3845   00132E  EF9B  F009         	goto	u7470
  3846   001332                     u7471:
  3847   001332  EFC8  F009         	goto	l7643
  3848   001336                     u7470:
  3849   001336  0E00               	movlw	0
  3850   001338  6E2B               	movwf	?___fladd^0,c
  3851   00133A  0E00               	movlw	0
  3852   00133C  6E2C               	movwf	(?___fladd+1)^0,c
  3853   00133E  0E00               	movlw	0
  3854   001340  6E2D               	movwf	(?___fladd+2)^0,c
  3855   001342  0E00               	movlw	0
  3856   001344  6E2E               	movwf	(?___fladd+3)^0,c
  3857   001346  EF63  F00A         	goto	l2206
  3858   00134A                     l7627:
  3859   00134A  90D8               	bcf	status,0,c
  3860   00134C  362B               	rlcf	___fladd@b^0,f,c
  3861   00134E  362C               	rlcf	(___fladd@b+1)^0,f,c
  3862   001350  362D               	rlcf	(___fladd@b+2)^0,f,c
  3863   001352  362E               	rlcf	(___fladd@b+3)^0,f,c
  3864   001354  AE3A               	btfss	___fladd@grs^0,7,c
  3865   001356  EFAF  F009         	goto	u7481
  3866   00135A  EFB1  F009         	goto	u7480
  3867   00135E                     u7481:
  3868   00135E  EFB2  F009         	goto	l7633
  3869   001362                     u7480:
  3870   001362  802B               	bsf	___fladd@b^0,0,c
  3871   001364                     l7633:
  3872   001364  A03A               	btfss	___fladd@grs^0,0,c
  3873   001366  EFB7  F009         	goto	u7491
  3874   00136A  EFB9  F009         	goto	u7490
  3875   00136E                     u7491:
  3876   00136E  EFBD  F009         	goto	l7637
  3877   001372                     u7490:
  3878   001372  80D8               	bsf	status,0,c
  3879   001374  363A               	rlcf	___fladd@grs^0,f,c
  3880   001376  EFBF  F009         	goto	l7639
  3881   00137A                     l7637:
  3882   00137A  90D8               	bcf	status,0,c
  3883   00137C  363A               	rlcf	___fladd@grs^0,f,c
  3884   00137E                     l7639:
  3885   00137E  5039               	movf	___fladd@bexp^0,w,c
  3886   001380  B4D8               	btfsc	status,2,c
  3887   001382  EFC5  F009         	goto	u7501
  3888   001386  EFC7  F009         	goto	u7500
  3889   00138A                     u7501:
  3890   00138A  EFC8  F009         	goto	l7643
  3891   00138E                     u7500:
  3892   00138E  0639               	decf	___fladd@bexp^0,f,c
  3893   001390                     l7643:
  3894   001390  AE2D               	btfss	(___fladd@b+2)^0,7,c
  3895   001392  EFCD  F009         	goto	u7511
  3896   001396  EFCF  F009         	goto	u7510
  3897   00139A                     u7511:
  3898   00139A  EFA5  F009         	goto	l7627
  3899   00139E                     u7510:
  3900   00139E                     l7645:
  3901   00139E  0E00               	movlw	0
  3902   0013A0  6E38               	movwf	___fladd@aexp^0,c
  3903   0013A2  AE3A               	btfss	___fladd@grs^0,7,c
  3904   0013A4  EFD6  F009         	goto	u7521
  3905   0013A8  EFD8  F009         	goto	u7520
  3906   0013AC                     u7521:
  3907   0013AC  EFF0  F009         	goto	l2223
  3908   0013B0                     u7520:
  3909   0013B0  C03A  F033         	movff	___fladd@grs,??___fladd
  3910   0013B4  0E7F               	movlw	127
  3911   0013B6  1633               	andwf	??___fladd^0,f,c
  3912   0013B8  B4D8               	btfsc	status,2,c
  3913   0013BA  EFE1  F009         	goto	u7531
  3914   0013BE  EFE3  F009         	goto	u7530
  3915   0013C2                     u7531:
  3916   0013C2  EFE7  F009         	goto	l2224
  3917   0013C6                     u7530:
  3918   0013C6                     l7651:
  3919   0013C6  0E01               	movlw	1
  3920   0013C8  6E38               	movwf	___fladd@aexp^0,c
  3921   0013CA  EFF0  F009         	goto	l2223
  3922   0013CE                     l2224:
  3923   0013CE  A02B               	btfss	___fladd@b^0,0,c
  3924   0013D0  EFEC  F009         	goto	u7541
  3925   0013D4  EFEE  F009         	goto	u7540
  3926   0013D8                     u7541:
  3927   0013D8  EFF0  F009         	goto	l2223
  3928   0013DC                     u7540:
  3929   0013DC  EFE3  F009         	goto	l7651
  3930   0013E0                     l2223:
  3931   0013E0  5038               	movf	___fladd@aexp^0,w,c
  3932   0013E2  B4D8               	btfsc	status,2,c
  3933   0013E4  EFF6  F009         	goto	u7551
  3934   0013E8  EFF8  F009         	goto	u7550
  3935   0013EC                     u7551:
  3936   0013EC  EF23  F00A         	goto	l7663
  3937   0013F0                     u7550:
  3938   0013F0  0E01               	movlw	1
  3939   0013F2  262B               	addwf	___fladd@b^0,f,c
  3940   0013F4  0E00               	movlw	0
  3941   0013F6  222C               	addwfc	(___fladd@b+1)^0,f,c
  3942   0013F8  222D               	addwfc	(___fladd@b+2)^0,f,c
  3943   0013FA  222E               	addwfc	(___fladd@b+3)^0,f,c
  3944   0013FC  A02E               	btfss	(___fladd@b+3)^0,0,c
  3945   0013FE  EF03  F00A         	goto	u7561
  3946   001402  EF05  F00A         	goto	u7560
  3947   001406                     u7561:
  3948   001406  EF23  F00A         	goto	l7663
  3949   00140A                     u7560:
  3950   00140A  C02B  F033         	movff	___fladd@b,??___fladd
  3951   00140E  C02C  F034         	movff	___fladd@b+1,??___fladd+1
  3952   001412  C02D  F035         	movff	___fladd@b+2,??___fladd+2
  3953   001416  C02E  F036         	movff	___fladd@b+3,??___fladd+3
  3954   00141A  3436               	rlcf	(??___fladd+3)^0,w,c
  3955   00141C  3236               	rrcf	(??___fladd+3)^0,f,c
  3956   00141E  3235               	rrcf	(??___fladd+2)^0,f,c
  3957   001420  3234               	rrcf	(??___fladd+1)^0,f,c
  3958   001422  3233               	rrcf	??___fladd^0,f,c
  3959   001424  C033  F02B         	movff	??___fladd,___fladd@b
  3960   001428  C034  F02C         	movff	??___fladd+1,___fladd@b+1
  3961   00142C  C035  F02D         	movff	??___fladd+2,___fladd@b+2
  3962   001430  C036  F02E         	movff	??___fladd+3,___fladd@b+3
  3963   001434  2839               	incf	___fladd@bexp^0,w,c
  3964   001436  B4D8               	btfsc	status,2,c
  3965   001438  EF20  F00A         	goto	u7571
  3966   00143C  EF22  F00A         	goto	u7570
  3967   001440                     u7571:
  3968   001440  EF23  F00A         	goto	l7663
  3969   001444                     u7570:
  3970   001444  2A39               	incf	___fladd@bexp^0,f,c
  3971   001446                     l7663:
  3972   001446  2839               	incf	___fladd@bexp^0,w,c
  3973   001448  B4D8               	btfsc	status,2,c
  3974   00144A  EF29  F00A         	goto	u7581
  3975   00144E  EF2B  F00A         	goto	u7580
  3976   001452                     u7581:
  3977   001452  EF33  F00A         	goto	l7667
  3978   001456                     u7580:
  3979   001456  5039               	movf	___fladd@bexp^0,w,c
  3980   001458  A4D8               	btfss	status,2,c
  3981   00145A  EF31  F00A         	goto	u7591
  3982   00145E  EF33  F00A         	goto	u7590
  3983   001462                     u7591:
  3984   001462  EF45  F00A         	goto	l7671
  3985   001466                     u7590:
  3986   001466                     l7667:
  3987   001466  0E00               	movlw	0
  3988   001468  6E2B               	movwf	___fladd@b^0,c
  3989   00146A  0E00               	movlw	0
  3990   00146C  6E2C               	movwf	(___fladd@b+1)^0,c
  3991   00146E  0E00               	movlw	0
  3992   001470  6E2D               	movwf	(___fladd@b+2)^0,c
  3993   001472  0E00               	movlw	0
  3994   001474  6E2E               	movwf	(___fladd@b+3)^0,c
  3995   001476  5039               	movf	___fladd@bexp^0,w,c
  3996   001478  A4D8               	btfss	status,2,c
  3997   00147A  EF41  F00A         	goto	u7601
  3998   00147E  EF43  F00A         	goto	u7600
  3999   001482                     u7601:
  4000   001482  EF45  F00A         	goto	l7671
  4001   001486                     u7600:
  4002   001486  0E00               	movlw	0
  4003   001488  6E37               	movwf	___fladd@signs^0,c
  4004   00148A                     l7671:
  4005   00148A  A039               	btfss	___fladd@bexp^0,0,c
  4006   00148C  EF4A  F00A         	goto	u7611
  4007   001490  EF4C  F00A         	goto	u7610
  4008   001494                     u7611:
  4009   001494  EF4F  F00A         	goto	l7675
  4010   001498                     u7610:
  4011   001498  8E2D               	bsf	(___fladd@b+2)^0,7,c
  4012   00149A  EF50  F00A         	goto	l7677
  4013   00149E                     l7675:
  4014   00149E  9E2D               	bcf	(___fladd@b+2)^0,7,c
  4015   0014A0                     l7677:
  4016   0014A0  90D8               	bcf	status,0,c
  4017   0014A2  3039               	rrcf	___fladd@bexp^0,w,c
  4018   0014A4  6E2E               	movwf	(___fladd@b+3)^0,c
  4019   0014A6  AE37               	btfss	___fladd@signs^0,7,c
  4020   0014A8  EF58  F00A         	goto	u7621
  4021   0014AC  EF5A  F00A         	goto	u7620
  4022   0014B0                     u7621:
  4023   0014B0  EF5B  F00A         	goto	l7683
  4024   0014B4                     u7620:
  4025   0014B4  8E2E               	bsf	(___fladd@b+3)^0,7,c
  4026   0014B6                     l7683:
  4027   0014B6  C02B  F02B         	movff	___fladd@b,?___fladd
  4028   0014BA  C02C  F02C         	movff	___fladd@b+1,?___fladd+1
  4029   0014BE  C02D  F02D         	movff	___fladd@b+2,?___fladd+2
  4030   0014C2  C02E  F02E         	movff	___fladd@b+3,?___fladd+3
  4031   0014C6                     l2206:
  4032   0014C6  0012               	return		;funcret
  4033   0014C8                     __end_of___fladd:
  4034                           	callstack 0
  4035                           
  4036 ;; *************** function _Interrupt_Manager *****************
  4037 ;; Defined at:
  4038 ;;		line 30 in file "MCAL_Layer/interrupt/mcal_interrupt_manager.c"
  4039 ;; Parameters:    Size  Location     Type
  4040 ;;		None
  4041 ;; Auto vars:     Size  Location     Type
  4042 ;;		None
  4043 ;; Return value:  Size  Location     Type
  4044 ;;                  1    wreg      void 
  4045 ;; Registers used:
  4046 ;;		wreg, status,2, status,0, pcl, pclath, pclatu, tosl, cstack
  4047 ;; Tracked objects:
  4048 ;;		On entry : 0/0
  4049 ;;		On exit  : 0/0
  4050 ;;		Unchanged: 0/0
  4051 ;; Data sizes:     COMRAM   BANK0   BANK1   BANK2   BANK3   BANK4   BANK5   BANK6   BANK7   BANK8   BANK9  BANK10  BANK1
      +1  BANK12  BANK13  BANK14  BANK15
  4052 ;;      Params:         0       0       0       0       0       0       0       0       0       0       0       0       
      +0       0       0       0       0
  4053 ;;      Locals:         0       0       0       0       0       0       0       0       0       0       0       0       
      +0       0       0       0       0
  4054 ;;      Temps:          2       0       0       0       0       0       0       0       0       0       0       0       
      +0       0       0       0       0
  4055 ;;      Totals:         2       0       0       0       0       0       0       0       0       0       0       0       
      +0       0       0       0       0
  4056 ;;Total ram usage:        2 bytes
  4057 ;; Hardware stack levels used: 1
  4058 ;; Hardware stack levels required when called: 2
  4059 ;; This function calls:
  4060 ;;		_ADC_ISR
  4061 ;;		_CCP1_ISR
  4062 ;;		_CCP2_ISR
  4063 ;;		_EUSART_RX_ISR
  4064 ;;		_EUSART_TX_ISR
  4065 ;;		_INT0_ISR
  4066 ;;		_INT1_ISR
  4067 ;;		_INT2_ISR
  4068 ;;		_MSSP_I2C_BC_ISR
  4069 ;;		_MSSP_I2C_ISR
  4070 ;;		_RB4_ISR
  4071 ;;		_RB5_ISR
  4072 ;;		_RB6_ISR
  4073 ;;		_RB7_ISR
  4074 ;;		_TIMER0_ISR
  4075 ;;		_TIMER1_ISR
  4076 ;;		_TIMER2_ISR
  4077 ;;		_TIMER3_ISR
  4078 ;; This function is called by:
  4079 ;;		Interrupt level 2
  4080 ;; This function uses a non-reentrant model
  4081 ;;
  4082                           
  4083                           	psect	intcode
  4084   000008                     __pintcode:
  4085                           	callstack 0
  4086   000008                     _Interrupt_Manager:
  4087                           	callstack 24
  4088                           
  4089                           ;incstack = 0
  4090   000008  827C               	bsf	int$flags,1,c	;set compiler interrupt flag (level 2)
  4091   00000A  ED64  F00A         	call	int_func,f	;refresh shadow registers
  4092                           
  4093                           	psect	intcode_body
  4094   0014C8                     __pintcode_body:
  4095                           	callstack 24
  4096   0014C8                     int_func:
  4097                           	callstack 24
  4098   0014C8  0006               	pop		; remove dummy address from shadow register refresh
  4099   0014CA  CFFA F002          	movff	pclath,??_Interrupt_Manager
  4100   0014CE  CFFB F003          	movff	pclatu,??_Interrupt_Manager+1
  4101   0014D2                     
  4102                           ;MCAL_Layer/interrupt/mcal_interrupt_manager.c: 31:     if((INTCONbits.INT0IE ==1) && (I
      +                          NTCONbits.INT0IF==1)){
  4103   0014D2  A8F2               	btfss	242,4,c	;volatile
  4104   0014D4  EF6E  F00A         	goto	i2u640_41
  4105   0014D8  EF70  F00A         	goto	i2u640_40
  4106   0014DC                     i2u640_41:
  4107   0014DC  EF79  F00A         	goto	i2l1089
  4108   0014E0                     i2u640_40:
  4109   0014E0  A2F2               	btfss	242,1,c	;volatile
  4110   0014E2  EF75  F00A         	goto	i2u641_41
  4111   0014E6  EF77  F00A         	goto	i2u641_40
  4112   0014EA                     i2u641_41:
  4113   0014EA  EF79  F00A         	goto	i2l1089
  4114   0014EE                     i2u641_40:
  4115   0014EE                     
  4116                           ;MCAL_Layer/interrupt/mcal_interrupt_manager.c: 32:     INT0_ISR();
  4117   0014EE  EC72  F014         	call	_INT0_ISR	;wreg free
  4118   0014F2                     i2l1089:
  4119                           
  4120                           ;MCAL_Layer/interrupt/mcal_interrupt_manager.c: 35:     if((INTCON3bits.INT1E ==1) && (I
      +                          NTCON3bits.INT1F ==1)){
  4121   0014F2  A6F0               	btfss	240,3,c	;volatile
  4122   0014F4  EF7E  F00A         	goto	i2u642_41
  4123   0014F8  EF80  F00A         	goto	i2u642_40
  4124   0014FC                     i2u642_41:
  4125   0014FC  EF89  F00A         	goto	i2l1091
  4126   001500                     i2u642_40:
  4127   001500  A0F0               	btfss	240,0,c	;volatile
  4128   001502  EF85  F00A         	goto	i2u643_41
  4129   001506  EF87  F00A         	goto	i2u643_40
  4130   00150A                     i2u643_41:
  4131   00150A  EF89  F00A         	goto	i2l1091
  4132   00150E                     i2u643_40:
  4133   00150E                     
  4134                           ;MCAL_Layer/interrupt/mcal_interrupt_manager.c: 36:     INT1_ISR();
  4135   00150E  EC70  F014         	call	_INT1_ISR	;wreg free
  4136   001512                     i2l1091:
  4137                           
  4138                           ;MCAL_Layer/interrupt/mcal_interrupt_manager.c: 39:     if((INTCON3bits.INT2E ==1) && (I
      +                          NTCON3bits.INT2F ==1)){
  4139   001512  A8F0               	btfss	240,4,c	;volatile
  4140   001514  EF8E  F00A         	goto	i2u644_41
  4141   001518  EF90  F00A         	goto	i2u644_40
  4142   00151C                     i2u644_41:
  4143   00151C  EF99  F00A         	goto	i2l1093
  4144   001520                     i2u644_40:
  4145   001520  A2F0               	btfss	240,1,c	;volatile
  4146   001522  EF95  F00A         	goto	i2u645_41
  4147   001526  EF97  F00A         	goto	i2u645_40
  4148   00152A                     i2u645_41:
  4149   00152A  EF99  F00A         	goto	i2l1093
  4150   00152E                     i2u645_40:
  4151   00152E                     
  4152                           ;MCAL_Layer/interrupt/mcal_interrupt_manager.c: 40:     INT2_ISR();
  4153   00152E  EC6E  F014         	call	_INT2_ISR	;wreg free
  4154   001532                     i2l1093:
  4155                           
  4156                           ;MCAL_Layer/interrupt/mcal_interrupt_manager.c: 43:     if((INTCONbits.RBIE ==1) && (INT
      +                          CONbits.RBIF ==1) &&
  4157   001532  A6F2               	btfss	242,3,c	;volatile
  4158   001534  EF9E  F00A         	goto	i2u646_41
  4159   001538  EFA0  F00A         	goto	i2u646_40
  4160   00153C                     i2u646_41:
  4161   00153C  EFBB  F00A         	goto	i2l1095
  4162   001540                     i2u646_40:
  4163   001540  A0F2               	btfss	242,0,c	;volatile
  4164   001542  EFA5  F00A         	goto	i2u647_41
  4165   001546  EFA7  F00A         	goto	i2u647_40
  4166   00154A                     i2u647_41:
  4167   00154A  EFBB  F00A         	goto	i2l1095
  4168   00154E                     i2u647_40:
  4169   00154E  A881               	btfss	129,4,c	;volatile
  4170   001550  EFAC  F00A         	goto	i2u648_41
  4171   001554  EFAE  F00A         	goto	i2u648_40
  4172   001558                     i2u648_41:
  4173   001558  EFBB  F00A         	goto	i2l1095
  4174   00155C                     i2u648_40:
  4175   00155C  047A               	decf	_RB4_Flag^0,w,c	;volatile
  4176   00155E  A4D8               	btfss	status,2,c
  4177   001560  EFB4  F00A         	goto	i2u649_41
  4178   001564  EFB6  F00A         	goto	i2u649_40
  4179   001568                     i2u649_41:
  4180   001568  EFBB  F00A         	goto	i2l1095
  4181   00156C                     i2u649_40:
  4182   00156C                     
  4183                           ;MCAL_Layer/interrupt/mcal_interrupt_manager.c: 44:         (PORTBbits.RB4 == HIGH)&& (R
      +                          B4_Flag== 1)){;MCAL_Layer/interrupt/mcal_interrupt_manager.c: 45:         RB4_Flag = 0;
  4184   00156C  0E00               	movlw	0
  4185   00156E  6E7A               	movwf	_RB4_Flag^0,c	;volatile
  4186   001570                     
  4187                           ;MCAL_Layer/interrupt/mcal_interrupt_manager.c: 46:         RB4_ISR(1);
  4188   001570  0E01               	movlw	1
  4189   001572  EC43  F014         	call	_RB4_ISR
  4190   001576                     i2l1095:
  4191                           
  4192                           ;MCAL_Layer/interrupt/mcal_interrupt_manager.c: 49:     if((INTCONbits.RBIE ==1) && (INT
      +                          CONbits.RBIF ==1)&&
  4193   001576  A6F2               	btfss	242,3,c	;volatile
  4194   001578  EFC0  F00A         	goto	i2u650_41
  4195   00157C  EFC2  F00A         	goto	i2u650_40
  4196   001580                     i2u650_41:
  4197   001580  EFDD  F00A         	goto	i2l1097
  4198   001584                     i2u650_40:
  4199   001584  A0F2               	btfss	242,0,c	;volatile
  4200   001586  EFC7  F00A         	goto	i2u651_41
  4201   00158A  EFC9  F00A         	goto	i2u651_40
  4202   00158E                     i2u651_41:
  4203   00158E  EFDD  F00A         	goto	i2l1097
  4204   001592                     i2u651_40:
  4205   001592  B881               	btfsc	129,4,c	;volatile
  4206   001594  EFCE  F00A         	goto	i2u652_41
  4207   001598  EFD0  F00A         	goto	i2u652_40
  4208   00159C                     i2u652_41:
  4209   00159C  EFDD  F00A         	goto	i2l1097
  4210   0015A0                     i2u652_40:
  4211   0015A0  507A               	movf	_RB4_Flag^0,w,c	;volatile
  4212   0015A2  A4D8               	btfss	status,2,c
  4213   0015A4  EFD6  F00A         	goto	i2u653_41
  4214   0015A8  EFD8  F00A         	goto	i2u653_40
  4215   0015AC                     i2u653_41:
  4216   0015AC  EFDD  F00A         	goto	i2l1097
  4217   0015B0                     i2u653_40:
  4218   0015B0                     
  4219                           ;MCAL_Layer/interrupt/mcal_interrupt_manager.c: 50:        (PORTBbits.RB4 == LOW)&& (RB4
      +                          _Flag== 0)){;MCAL_Layer/interrupt/mcal_interrupt_manager.c: 51:         RB4_Flag = 1;
  4220   0015B0  0E01               	movlw	1
  4221   0015B2  6E7A               	movwf	_RB4_Flag^0,c	;volatile
  4222   0015B4                     
  4223                           ;MCAL_Layer/interrupt/mcal_interrupt_manager.c: 52:         RB4_ISR(0);
  4224   0015B4  0E00               	movlw	0
  4225   0015B6  EC43  F014         	call	_RB4_ISR
  4226   0015BA                     i2l1097:
  4227                           
  4228                           ;MCAL_Layer/interrupt/mcal_interrupt_manager.c: 55:     if((INTCONbits.RBIE ==1) && (INT
      +                          CONbits.RBIF ==1) &&
  4229   0015BA  A6F2               	btfss	242,3,c	;volatile
  4230   0015BC  EFE2  F00A         	goto	i2u654_41
  4231   0015C0  EFE4  F00A         	goto	i2u654_40
  4232   0015C4                     i2u654_41:
  4233   0015C4  EFFF  F00A         	goto	i2l1099
  4234   0015C8                     i2u654_40:
  4235   0015C8  A0F2               	btfss	242,0,c	;volatile
  4236   0015CA  EFE9  F00A         	goto	i2u655_41
  4237   0015CE  EFEB  F00A         	goto	i2u655_40
  4238   0015D2                     i2u655_41:
  4239   0015D2  EFFF  F00A         	goto	i2l1099
  4240   0015D6                     i2u655_40:
  4241   0015D6  AA81               	btfss	129,5,c	;volatile
  4242   0015D8  EFF0  F00A         	goto	i2u656_41
  4243   0015DC  EFF2  F00A         	goto	i2u656_40
  4244   0015E0                     i2u656_41:
  4245   0015E0  EFFF  F00A         	goto	i2l1099
  4246   0015E4                     i2u656_40:
  4247   0015E4  0479               	decf	_RB5_Flag^0,w,c	;volatile
  4248   0015E6  A4D8               	btfss	status,2,c
  4249   0015E8  EFF8  F00A         	goto	i2u657_41
  4250   0015EC  EFFA  F00A         	goto	i2u657_40
  4251   0015F0                     i2u657_41:
  4252   0015F0  EFFF  F00A         	goto	i2l1099
  4253   0015F4                     i2u657_40:
  4254   0015F4                     
  4255                           ;MCAL_Layer/interrupt/mcal_interrupt_manager.c: 56:         (PORTBbits.RB5 == HIGH)&& (R
      +                          B5_Flag== 1)){;MCAL_Layer/interrupt/mcal_interrupt_manager.c: 57:           RB5_Flag = 0
      +                          ;
  4256   0015F4  0E00               	movlw	0
  4257   0015F6  6E79               	movwf	_RB5_Flag^0,c	;volatile
  4258   0015F8                     
  4259                           ;MCAL_Layer/interrupt/mcal_interrupt_manager.c: 58:           RB5_ISR(1);
  4260   0015F8  0E01               	movlw	1
  4261   0015FA  EC36  F014         	call	_RB5_ISR
  4262   0015FE                     i2l1099:
  4263                           
  4264                           ;MCAL_Layer/interrupt/mcal_interrupt_manager.c: 61:     if((INTCONbits.RBIE ==1) && (INT
      +                          CONbits.RBIF ==1)&&
  4265   0015FE  A6F2               	btfss	242,3,c	;volatile
  4266   001600  EF04  F00B         	goto	i2u658_41
  4267   001604  EF06  F00B         	goto	i2u658_40
  4268   001608                     i2u658_41:
  4269   001608  EF21  F00B         	goto	i2l1101
  4270   00160C                     i2u658_40:
  4271   00160C  A0F2               	btfss	242,0,c	;volatile
  4272   00160E  EF0B  F00B         	goto	i2u659_41
  4273   001612  EF0D  F00B         	goto	i2u659_40
  4274   001616                     i2u659_41:
  4275   001616  EF21  F00B         	goto	i2l1101
  4276   00161A                     i2u659_40:
  4277   00161A  BA81               	btfsc	129,5,c	;volatile
  4278   00161C  EF12  F00B         	goto	i2u660_41
  4279   001620  EF14  F00B         	goto	i2u660_40
  4280   001624                     i2u660_41:
  4281   001624  EF21  F00B         	goto	i2l1101
  4282   001628                     i2u660_40:
  4283   001628  5079               	movf	_RB5_Flag^0,w,c	;volatile
  4284   00162A  A4D8               	btfss	status,2,c
  4285   00162C  EF1A  F00B         	goto	i2u661_41
  4286   001630  EF1C  F00B         	goto	i2u661_40
  4287   001634                     i2u661_41:
  4288   001634  EF21  F00B         	goto	i2l1101
  4289   001638                     i2u661_40:
  4290   001638                     
  4291                           ;MCAL_Layer/interrupt/mcal_interrupt_manager.c: 62:         (PORTBbits.RB5 == LOW)&& (RB
      +                          5_Flag== 0)){;MCAL_Layer/interrupt/mcal_interrupt_manager.c: 63:           RB5_Flag = 1;
  4292   001638  0E01               	movlw	1
  4293   00163A  6E79               	movwf	_RB5_Flag^0,c	;volatile
  4294   00163C                     
  4295                           ;MCAL_Layer/interrupt/mcal_interrupt_manager.c: 64:           RB5_ISR(0);
  4296   00163C  0E00               	movlw	0
  4297   00163E  EC36  F014         	call	_RB5_ISR
  4298   001642                     i2l1101:
  4299                           
  4300                           ;MCAL_Layer/interrupt/mcal_interrupt_manager.c: 67:     if((INTCONbits.RBIE ==1) && (INT
      +                          CONbits.RBIF ==1) &&
  4301   001642  A6F2               	btfss	242,3,c	;volatile
  4302   001644  EF26  F00B         	goto	i2u662_41
  4303   001648  EF28  F00B         	goto	i2u662_40
  4304   00164C                     i2u662_41:
  4305   00164C  EF43  F00B         	goto	i2l1103
  4306   001650                     i2u662_40:
  4307   001650  A0F2               	btfss	242,0,c	;volatile
  4308   001652  EF2D  F00B         	goto	i2u663_41
  4309   001656  EF2F  F00B         	goto	i2u663_40
  4310   00165A                     i2u663_41:
  4311   00165A  EF43  F00B         	goto	i2l1103
  4312   00165E                     i2u663_40:
  4313   00165E  AC81               	btfss	129,6,c	;volatile
  4314   001660  EF34  F00B         	goto	i2u664_41
  4315   001664  EF36  F00B         	goto	i2u664_40
  4316   001668                     i2u664_41:
  4317   001668  EF43  F00B         	goto	i2l1103
  4318   00166C                     i2u664_40:
  4319   00166C  0478               	decf	_RB6_Flag^0,w,c	;volatile
  4320   00166E  A4D8               	btfss	status,2,c
  4321   001670  EF3C  F00B         	goto	i2u665_41
  4322   001674  EF3E  F00B         	goto	i2u665_40
  4323   001678                     i2u665_41:
  4324   001678  EF43  F00B         	goto	i2l1103
  4325   00167C                     i2u665_40:
  4326   00167C                     
  4327                           ;MCAL_Layer/interrupt/mcal_interrupt_manager.c: 68:        (PORTBbits.RB6 == HIGH)&& (RB
      +                          6_Flag== 1)){;MCAL_Layer/interrupt/mcal_interrupt_manager.c: 69:           RB6_Flag = 0;
  4328   00167C  0E00               	movlw	0
  4329   00167E  6E78               	movwf	_RB6_Flag^0,c	;volatile
  4330   001680                     
  4331                           ;MCAL_Layer/interrupt/mcal_interrupt_manager.c: 70:           RB6_ISR(1);
  4332   001680  0E01               	movlw	1
  4333   001682  EC29  F014         	call	_RB6_ISR
  4334   001686                     i2l1103:
  4335                           
  4336                           ;MCAL_Layer/interrupt/mcal_interrupt_manager.c: 73:     if((INTCONbits.RBIE ==1) && (INT
      +                          CONbits.RBIF ==1)&&
  4337   001686  A6F2               	btfss	242,3,c	;volatile
  4338   001688  EF48  F00B         	goto	i2u666_41
  4339   00168C  EF4A  F00B         	goto	i2u666_40
  4340   001690                     i2u666_41:
  4341   001690  EF65  F00B         	goto	i2l1105
  4342   001694                     i2u666_40:
  4343   001694  A0F2               	btfss	242,0,c	;volatile
  4344   001696  EF4F  F00B         	goto	i2u667_41
  4345   00169A  EF51  F00B         	goto	i2u667_40
  4346   00169E                     i2u667_41:
  4347   00169E  EF65  F00B         	goto	i2l1105
  4348   0016A2                     i2u667_40:
  4349   0016A2  BC81               	btfsc	129,6,c	;volatile
  4350   0016A4  EF56  F00B         	goto	i2u668_41
  4351   0016A8  EF58  F00B         	goto	i2u668_40
  4352   0016AC                     i2u668_41:
  4353   0016AC  EF65  F00B         	goto	i2l1105
  4354   0016B0                     i2u668_40:
  4355   0016B0  5078               	movf	_RB6_Flag^0,w,c	;volatile
  4356   0016B2  A4D8               	btfss	status,2,c
  4357   0016B4  EF5E  F00B         	goto	i2u669_41
  4358   0016B8  EF60  F00B         	goto	i2u669_40
  4359   0016BC                     i2u669_41:
  4360   0016BC  EF65  F00B         	goto	i2l1105
  4361   0016C0                     i2u669_40:
  4362   0016C0                     
  4363                           ;MCAL_Layer/interrupt/mcal_interrupt_manager.c: 74:         (PORTBbits.RB6 == LOW)&& (RB
      +                          6_Flag== 0)){;MCAL_Layer/interrupt/mcal_interrupt_manager.c: 75:           RB6_Flag = 1;
  4364   0016C0  0E01               	movlw	1
  4365   0016C2  6E78               	movwf	_RB6_Flag^0,c	;volatile
  4366   0016C4                     
  4367                           ;MCAL_Layer/interrupt/mcal_interrupt_manager.c: 76:           RB6_ISR(0);
  4368   0016C4  0E00               	movlw	0
  4369   0016C6  EC29  F014         	call	_RB6_ISR
  4370   0016CA                     i2l1105:
  4371                           
  4372                           ;MCAL_Layer/interrupt/mcal_interrupt_manager.c: 79:     if((INTCONbits.RBIE ==1) && (INT
      +                          CONbits.RBIF ==1) &&
  4373   0016CA  A6F2               	btfss	242,3,c	;volatile
  4374   0016CC  EF6A  F00B         	goto	i2u670_41
  4375   0016D0  EF6C  F00B         	goto	i2u670_40
  4376   0016D4                     i2u670_41:
  4377   0016D4  EF87  F00B         	goto	i2l1107
  4378   0016D8                     i2u670_40:
  4379   0016D8  A0F2               	btfss	242,0,c	;volatile
  4380   0016DA  EF71  F00B         	goto	i2u671_41
  4381   0016DE  EF73  F00B         	goto	i2u671_40
  4382   0016E2                     i2u671_41:
  4383   0016E2  EF87  F00B         	goto	i2l1107
  4384   0016E6                     i2u671_40:
  4385   0016E6  AE81               	btfss	129,7,c	;volatile
  4386   0016E8  EF78  F00B         	goto	i2u672_41
  4387   0016EC  EF7A  F00B         	goto	i2u672_40
  4388   0016F0                     i2u672_41:
  4389   0016F0  EF87  F00B         	goto	i2l1107
  4390   0016F4                     i2u672_40:
  4391   0016F4  0477               	decf	_RB7_Flag^0,w,c	;volatile
  4392   0016F6  A4D8               	btfss	status,2,c
  4393   0016F8  EF80  F00B         	goto	i2u673_41
  4394   0016FC  EF82  F00B         	goto	i2u673_40
  4395   001700                     i2u673_41:
  4396   001700  EF87  F00B         	goto	i2l1107
  4397   001704                     i2u673_40:
  4398   001704                     
  4399                           ;MCAL_Layer/interrupt/mcal_interrupt_manager.c: 80:         (PORTBbits.RB7 == HIGH)&& (R
      +                          B7_Flag== 1)){;MCAL_Layer/interrupt/mcal_interrupt_manager.c: 81:           RB7_Flag = 0
      +                          ;
  4400   001704  0E00               	movlw	0
  4401   001706  6E77               	movwf	_RB7_Flag^0,c	;volatile
  4402   001708                     
  4403                           ;MCAL_Layer/interrupt/mcal_interrupt_manager.c: 82:           RB7_ISR(1);
  4404   001708  0E01               	movlw	1
  4405   00170A  EC1C  F014         	call	_RB7_ISR
  4406   00170E                     i2l1107:
  4407                           
  4408                           ;MCAL_Layer/interrupt/mcal_interrupt_manager.c: 85:     if((INTCONbits.RBIE ==1) && (INT
      +                          CONbits.RBIF ==1)&&
  4409   00170E  A6F2               	btfss	242,3,c	;volatile
  4410   001710  EF8C  F00B         	goto	i2u674_41
  4411   001714  EF8E  F00B         	goto	i2u674_40
  4412   001718                     i2u674_41:
  4413   001718  EFA9  F00B         	goto	i2l1109
  4414   00171C                     i2u674_40:
  4415   00171C  A0F2               	btfss	242,0,c	;volatile
  4416   00171E  EF93  F00B         	goto	i2u675_41
  4417   001722  EF95  F00B         	goto	i2u675_40
  4418   001726                     i2u675_41:
  4419   001726  EFA9  F00B         	goto	i2l1109
  4420   00172A                     i2u675_40:
  4421   00172A  BE81               	btfsc	129,7,c	;volatile
  4422   00172C  EF9A  F00B         	goto	i2u676_41
  4423   001730  EF9C  F00B         	goto	i2u676_40
  4424   001734                     i2u676_41:
  4425   001734  EFA9  F00B         	goto	i2l1109
  4426   001738                     i2u676_40:
  4427   001738  5077               	movf	_RB7_Flag^0,w,c	;volatile
  4428   00173A  A4D8               	btfss	status,2,c
  4429   00173C  EFA2  F00B         	goto	i2u677_41
  4430   001740  EFA4  F00B         	goto	i2u677_40
  4431   001744                     i2u677_41:
  4432   001744  EFA9  F00B         	goto	i2l1109
  4433   001748                     i2u677_40:
  4434   001748                     
  4435                           ;MCAL_Layer/interrupt/mcal_interrupt_manager.c: 86:        (PORTBbits.RB7 == LOW)&& (RB7
      +                          _Flag== 0)){;MCAL_Layer/interrupt/mcal_interrupt_manager.c: 87:           RB7_Flag = 1;
  4436   001748  0E01               	movlw	1
  4437   00174A  6E77               	movwf	_RB7_Flag^0,c	;volatile
  4438   00174C                     
  4439                           ;MCAL_Layer/interrupt/mcal_interrupt_manager.c: 88:           RB7_ISR(0);
  4440   00174C  0E00               	movlw	0
  4441   00174E  EC1C  F014         	call	_RB7_ISR
  4442   001752                     i2l1109:
  4443                           
  4444                           ;MCAL_Layer/interrupt/mcal_interrupt_manager.c: 91:     if((PIE1bits.ADIE ==1) && (PIR1b
      +                          its.ADIF==1)){
  4445   001752  AC9D               	btfss	157,6,c	;volatile
  4446   001754  EFAE  F00B         	goto	i2u678_41
  4447   001758  EFB0  F00B         	goto	i2u678_40
  4448   00175C                     i2u678_41:
  4449   00175C  EFB9  F00B         	goto	i2l1111
  4450   001760                     i2u678_40:
  4451   001760  AC9E               	btfss	158,6,c	;volatile
  4452   001762  EFB5  F00B         	goto	i2u679_41
  4453   001766  EFB7  F00B         	goto	i2u679_40
  4454   00176A                     i2u679_41:
  4455   00176A  EFB9  F00B         	goto	i2l1111
  4456   00176E                     i2u679_40:
  4457   00176E                     
  4458                           ;MCAL_Layer/interrupt/mcal_interrupt_manager.c: 92:     ADC_ISR();
  4459   00176E  EC7A  F014         	call	_ADC_ISR	;wreg free
  4460   001772                     i2l1111:
  4461                           
  4462                           ;MCAL_Layer/interrupt/mcal_interrupt_manager.c: 95: if((INTCONbits.TMR0IE ==1) && (INTCO
      +                          Nbits.TMR0IF ==1)){
  4463   001772  AAF2               	btfss	242,5,c	;volatile
  4464   001774  EFBE  F00B         	goto	i2u680_41
  4465   001778  EFC0  F00B         	goto	i2u680_40
  4466   00177C                     i2u680_41:
  4467   00177C  EFC9  F00B         	goto	i2l1113
  4468   001780                     i2u680_40:
  4469   001780  A4F2               	btfss	242,2,c	;volatile
  4470   001782  EFC5  F00B         	goto	i2u681_41
  4471   001786  EFC7  F00B         	goto	i2u681_40
  4472   00178A                     i2u681_41:
  4473   00178A  EFC9  F00B         	goto	i2l1113
  4474   00178E                     i2u681_40:
  4475   00178E                     
  4476                           ;MCAL_Layer/interrupt/mcal_interrupt_manager.c: 96:     TIMER0_ISR();
  4477   00178E  EC5C  F014         	call	_TIMER0_ISR	;wreg free
  4478   001792                     i2l1113:
  4479                           
  4480                           ;MCAL_Layer/interrupt/mcal_interrupt_manager.c: 99: if((PIE1bits.TMR1IE ==1) && (PIR1bit
      +                          s.TMR1IF ==1)){
  4481   001792  A09D               	btfss	157,0,c	;volatile
  4482   001794  EFCE  F00B         	goto	i2u682_41
  4483   001798  EFD0  F00B         	goto	i2u682_40
  4484   00179C                     i2u682_41:
  4485   00179C  EFD9  F00B         	goto	i2l1115
  4486   0017A0                     i2u682_40:
  4487   0017A0  A09E               	btfss	158,0,c	;volatile
  4488   0017A2  EFD5  F00B         	goto	i2u683_41
  4489   0017A6  EFD7  F00B         	goto	i2u683_40
  4490   0017AA                     i2u683_41:
  4491   0017AA  EFD9  F00B         	goto	i2l1115
  4492   0017AE                     i2u683_40:
  4493   0017AE                     
  4494                           ;MCAL_Layer/interrupt/mcal_interrupt_manager.c: 100:     TIMER1_ISR();
  4495   0017AE  EC56  F014         	call	_TIMER1_ISR	;wreg free
  4496   0017B2                     i2l1115:
  4497                           
  4498                           ;MCAL_Layer/interrupt/mcal_interrupt_manager.c: 103: if((PIE1bits.TMR2IE ==1) && (PIR1bi
      +                          ts.TMR2IF ==1)){
  4499   0017B2  A29D               	btfss	157,1,c	;volatile
  4500   0017B4  EFDE  F00B         	goto	i2u684_41
  4501   0017B8  EFE0  F00B         	goto	i2u684_40
  4502   0017BC                     i2u684_41:
  4503   0017BC  EFE9  F00B         	goto	i2l1117
  4504   0017C0                     i2u684_40:
  4505   0017C0  A29E               	btfss	158,1,c	;volatile
  4506   0017C2  EFE5  F00B         	goto	i2u685_41
  4507   0017C6  EFE7  F00B         	goto	i2u685_40
  4508   0017CA                     i2u685_41:
  4509   0017CA  EFE9  F00B         	goto	i2l1117
  4510   0017CE                     i2u685_40:
  4511   0017CE                     
  4512                           ;MCAL_Layer/interrupt/mcal_interrupt_manager.c: 104:     TIMER2_ISR();
  4513   0017CE  EC62  F014         	call	_TIMER2_ISR	;wreg free
  4514   0017D2                     i2l1117:
  4515                           
  4516                           ;MCAL_Layer/interrupt/mcal_interrupt_manager.c: 107: if((PIE2bits.TMR3IE ==1) && (PIR2bi
      +                          ts.TMR3IF ==1)){
  4517   0017D2  A2A0               	btfss	160,1,c	;volatile
  4518   0017D4  EFEE  F00B         	goto	i2u686_41
  4519   0017D8  EFF0  F00B         	goto	i2u686_40
  4520   0017DC                     i2u686_41:
  4521   0017DC  EFF9  F00B         	goto	i2l1119
  4522   0017E0                     i2u686_40:
  4523   0017E0  A2A1               	btfss	161,1,c	;volatile
  4524   0017E2  EFF5  F00B         	goto	i2u687_41
  4525   0017E6  EFF7  F00B         	goto	i2u687_40
  4526   0017EA                     i2u687_41:
  4527   0017EA  EFF9  F00B         	goto	i2l1119
  4528   0017EE                     i2u687_40:
  4529   0017EE                     
  4530                           ;MCAL_Layer/interrupt/mcal_interrupt_manager.c: 108:     TIMER3_ISR();
  4531   0017EE  EC50  F014         	call	_TIMER3_ISR	;wreg free
  4532   0017F2                     i2l1119:
  4533                           
  4534                           ;MCAL_Layer/interrupt/mcal_interrupt_manager.c: 112: if((PIE1bits.CCP1IE ==1) && (PIR1bi
      +                          ts.CCP1IF ==1)){
  4535   0017F2  A49D               	btfss	157,2,c	;volatile
  4536   0017F4  EFFE  F00B         	goto	i2u688_41
  4537   0017F8  EF00  F00C         	goto	i2u688_40
  4538   0017FC                     i2u688_41:
  4539   0017FC  EF09  F00C         	goto	i2l1121
  4540   001800                     i2u688_40:
  4541   001800  A49E               	btfss	158,2,c	;volatile
  4542   001802  EF05  F00C         	goto	i2u689_41
  4543   001806  EF07  F00C         	goto	i2u689_40
  4544   00180A                     i2u689_41:
  4545   00180A  EF09  F00C         	goto	i2l1121
  4546   00180E                     i2u689_40:
  4547   00180E                     
  4548                           ;MCAL_Layer/interrupt/mcal_interrupt_manager.c: 113:     CCP1_ISR();
  4549   00180E  EC78  F014         	call	_CCP1_ISR	;wreg free
  4550   001812                     i2l1121:
  4551                           
  4552                           ;MCAL_Layer/interrupt/mcal_interrupt_manager.c: 116: if((PIE2bits.CCP2IE ==1) && (PIR2bi
      +                          ts.CCP2IF ==1)){
  4553   001812  A0A0               	btfss	160,0,c	;volatile
  4554   001814  EF0E  F00C         	goto	i2u690_41
  4555   001818  EF10  F00C         	goto	i2u690_40
  4556   00181C                     i2u690_41:
  4557   00181C  EF19  F00C         	goto	i2l1123
  4558   001820                     i2u690_40:
  4559   001820  A0A1               	btfss	161,0,c	;volatile
  4560   001822  EF15  F00C         	goto	i2u691_41
  4561   001826  EF17  F00C         	goto	i2u691_40
  4562   00182A                     i2u691_41:
  4563   00182A  EF19  F00C         	goto	i2l1123
  4564   00182E                     i2u691_40:
  4565   00182E                     
  4566                           ;MCAL_Layer/interrupt/mcal_interrupt_manager.c: 117:     CCP2_ISR();
  4567   00182E  EC76  F014         	call	_CCP2_ISR	;wreg free
  4568   001832                     i2l1123:
  4569                           
  4570                           ;MCAL_Layer/interrupt/mcal_interrupt_manager.c: 121: if((PIE1bits.TXIE ==1) && (PIR1bits
      +                          .TXIF==1)){
  4571   001832  A89D               	btfss	157,4,c	;volatile
  4572   001834  EF1E  F00C         	goto	i2u692_41
  4573   001838  EF20  F00C         	goto	i2u692_40
  4574   00183C                     i2u692_41:
  4575   00183C  EF29  F00C         	goto	i2l1125
  4576   001840                     i2u692_40:
  4577   001840  A89E               	btfss	158,4,c	;volatile
  4578   001842  EF25  F00C         	goto	i2u693_41
  4579   001846  EF27  F00C         	goto	i2u693_40
  4580   00184A                     i2u693_41:
  4581   00184A  EF29  F00C         	goto	i2l1125
  4582   00184E                     i2u693_40:
  4583   00184E                     
  4584                           ;MCAL_Layer/interrupt/mcal_interrupt_manager.c: 122:        EUSART_TX_ISR();
  4585   00184E  EC74  F014         	call	_EUSART_TX_ISR	;wreg free
  4586   001852                     i2l1125:
  4587                           
  4588                           ;MCAL_Layer/interrupt/mcal_interrupt_manager.c: 126: if((PIE1bits.RCIE ==1) && (PIR1bits
      +                          .RCIF==1)){
  4589   001852  AA9D               	btfss	157,5,c	;volatile
  4590   001854  EF2E  F00C         	goto	i2u694_41
  4591   001858  EF30  F00C         	goto	i2u694_40
  4592   00185C                     i2u694_41:
  4593   00185C  EF39  F00C         	goto	i2l1127
  4594   001860                     i2u694_40:
  4595   001860  AA9E               	btfss	158,5,c	;volatile
  4596   001862  EF35  F00C         	goto	i2u695_41
  4597   001866  EF37  F00C         	goto	i2u695_40
  4598   00186A                     i2u695_41:
  4599   00186A  EF39  F00C         	goto	i2l1127
  4600   00186E                     i2u695_40:
  4601   00186E                     
  4602                           ;MCAL_Layer/interrupt/mcal_interrupt_manager.c: 127:       EUSART_RX_ISR();
  4603   00186E  EC7C  F014         	call	_EUSART_RX_ISR	;wreg free
  4604   001872                     i2l1127:
  4605                           
  4606                           ;MCAL_Layer/interrupt/mcal_interrupt_manager.c: 131: if((PIE1bits.SSPIE ==1) && (PIR1bit
      +                          s.SSPIF == 1)){
  4607   001872  A69D               	btfss	157,3,c	;volatile
  4608   001874  EF3E  F00C         	goto	i2u696_41
  4609   001878  EF40  F00C         	goto	i2u696_40
  4610   00187C                     i2u696_41:
  4611   00187C  EF49  F00C         	goto	i2l1129
  4612   001880                     i2u696_40:
  4613   001880  A69E               	btfss	158,3,c	;volatile
  4614   001882  EF45  F00C         	goto	i2u697_41
  4615   001886  EF47  F00C         	goto	i2u697_40
  4616   00188A                     i2u697_41:
  4617   00188A  EF49  F00C         	goto	i2l1129
  4618   00188E                     i2u697_40:
  4619   00188E                     
  4620                           ;MCAL_Layer/interrupt/mcal_interrupt_manager.c: 132:       MSSP_I2C_ISR();
  4621   00188E  ECF7  F013         	call	_MSSP_I2C_ISR	;wreg free
  4622   001892                     i2l1129:
  4623                           
  4624                           ;MCAL_Layer/interrupt/mcal_interrupt_manager.c: 136: if((PIE2bits.BCLIE ==1) && (PIR2bit
      +                          s.BCLIF ==1)){
  4625   001892  A6A0               	btfss	160,3,c	;volatile
  4626   001894  EF4E  F00C         	goto	i2u698_41
  4627   001898  EF50  F00C         	goto	i2u698_40
  4628   00189C                     i2u698_41:
  4629   00189C  EF59  F00C         	goto	i2l1132
  4630   0018A0                     i2u698_40:
  4631   0018A0  A6A1               	btfss	161,3,c	;volatile
  4632   0018A2  EF55  F00C         	goto	i2u699_41
  4633   0018A6  EF57  F00C         	goto	i2u699_40
  4634   0018AA                     i2u699_41:
  4635   0018AA  EF59  F00C         	goto	i2l1132
  4636   0018AE                     i2u699_40:
  4637   0018AE                     
  4638                           ;MCAL_Layer/interrupt/mcal_interrupt_manager.c: 137:      MSSP_I2C_BC_ISR();
  4639   0018AE  EC6C  F014         	call	_MSSP_I2C_BC_ISR	;wreg free
  4640   0018B2                     i2l1132:
  4641   0018B2  C003  FFFB         	movff	??_Interrupt_Manager+1,pclatu
  4642   0018B6  C002  FFFA         	movff	??_Interrupt_Manager,pclath
  4643   0018BA  927C               	bcf	int$flags,1,c	;clear compiler interrupt flag (level 2)
  4644   0018BC  0011               	retfie		f
  4645   0018BE                     __end_of_Interrupt_Manager:
  4646                           	callstack 0
  4647                           
  4648 ;; *************** function _TIMER3_ISR *****************
  4649 ;; Defined at:
  4650 ;;		line 112 in file "MCAL_Layer/Timer3/hal_timer3.c"
  4651 ;; Parameters:    Size  Location     Type
  4652 ;;		None
  4653 ;; Auto vars:     Size  Location     Type
  4654 ;;		None
  4655 ;; Return value:  Size  Location     Type
  4656 ;;                  1    wreg      void 
  4657 ;; Registers used:
  4658 ;;		None
  4659 ;; Tracked objects:
  4660 ;;		On entry : 0/0
  4661 ;;		On exit  : 0/0
  4662 ;;		Unchanged: 0/0
  4663 ;; Data sizes:     COMRAM   BANK0   BANK1   BANK2   BANK3   BANK4   BANK5   BANK6   BANK7   BANK8   BANK9  BANK10  BANK1
      +1  BANK12  BANK13  BANK14  BANK15
  4664 ;;      Params:         0       0       0       0       0       0       0       0       0       0       0       0       
      +0       0       0       0       0
  4665 ;;      Locals:         0       0       0       0       0       0       0       0       0       0       0       0       
      +0       0       0       0       0
  4666 ;;      Temps:          0       0       0       0       0       0       0       0       0       0       0       0       
      +0       0       0       0       0
  4667 ;;      Totals:         0       0       0       0       0       0       0       0       0       0       0       0       
      +0       0       0       0       0
  4668 ;;Total ram usage:        0 bytes
  4669 ;; Hardware stack levels used: 1
  4670 ;; This function calls:
  4671 ;;		Nothing
  4672 ;; This function is called by:
  4673 ;;		_Interrupt_Manager
  4674 ;; This function uses a non-reentrant model
  4675 ;;
  4676                           
  4677                           	psect	text19
  4678   0028A0                     __ptext19:
  4679                           	callstack 0
  4680   0028A0                     _TIMER3_ISR:
  4681                           	callstack 25
  4682   0028A0                     
  4683                           ;MCAL_Layer/Timer3/hal_timer3.c: 113: (PIR2bits.TMR3IF = 0);
  4684   0028A0  92A1               	bcf	161,1,c	;volatile
  4685                           
  4686                           ;MCAL_Layer/Timer3/hal_timer3.c: 114: TMR3H = (timer3_preload)>>8;
  4687   0028A2  C087  FFB3         	movff	_timer3_preload+1,4019	;volatile
  4688                           
  4689                           ;MCAL_Layer/Timer3/hal_timer3.c: 115: TMR3L = (uint_8)(timer3_preload);
  4690   0028A6  C086  FFB2         	movff	_timer3_preload,4018	;volatile
  4691   0028AA  0012               	return		;funcret
  4692   0028AC                     __end_of_TIMER3_ISR:
  4693                           	callstack 0
  4694                           
  4695 ;; *************** function _TIMER2_ISR *****************
  4696 ;; Defined at:
  4697 ;;		line 89 in file "MCAL_Layer/Timer2/hal_timer2.c"
  4698 ;; Parameters:    Size  Location     Type
  4699 ;;		None
  4700 ;; Auto vars:     Size  Location     Type
  4701 ;;		None
  4702 ;; Return value:  Size  Location     Type
  4703 ;;                  1    wreg      void 
  4704 ;; Registers used:
  4705 ;;		None
  4706 ;; Tracked objects:
  4707 ;;		On entry : 0/0
  4708 ;;		On exit  : 0/0
  4709 ;;		Unchanged: 0/0
  4710 ;; Data sizes:     COMRAM   BANK0   BANK1   BANK2   BANK3   BANK4   BANK5   BANK6   BANK7   BANK8   BANK9  BANK10  BANK1
      +1  BANK12  BANK13  BANK14  BANK15
  4711 ;;      Params:         0       0       0       0       0       0       0       0       0       0       0       0       
      +0       0       0       0       0
  4712 ;;      Locals:         0       0       0       0       0       0       0       0       0       0       0       0       
      +0       0       0       0       0
  4713 ;;      Temps:          0       0       0       0       0       0       0       0       0       0       0       0       
      +0       0       0       0       0
  4714 ;;      Totals:         0       0       0       0       0       0       0       0       0       0       0       0       
      +0       0       0       0       0
  4715 ;;Total ram usage:        0 bytes
  4716 ;; Hardware stack levels used: 1
  4717 ;; This function calls:
  4718 ;;		Nothing
  4719 ;; This function is called by:
  4720 ;;		_Interrupt_Manager
  4721 ;; This function uses a non-reentrant model
  4722 ;;
  4723                           
  4724                           	psect	text20
  4725   0028C4                     __ptext20:
  4726                           	callstack 0
  4727   0028C4                     _TIMER2_ISR:
  4728                           	callstack 25
  4729   0028C4                     
  4730                           ;MCAL_Layer/Timer2/hal_timer2.c: 90:   (PIR1bits.TMR2IF = 0);
  4731   0028C4  929E               	bcf	158,1,c	;volatile
  4732                           
  4733                           ;MCAL_Layer/Timer2/hal_timer2.c: 91:   TMR2 = timer2_preloaded;
  4734   0028C6  C06F  FFCC         	movff	_timer2_preloaded,4044	;volatile
  4735   0028CA  0012               	return		;funcret
  4736   0028CC                     __end_of_TIMER2_ISR:
  4737                           	callstack 0
  4738                           
  4739 ;; *************** function _TIMER1_ISR *****************
  4740 ;; Defined at:
  4741 ;;		line 116 in file "MCAL_Layer/Timer1/hal_timer1.c"
  4742 ;; Parameters:    Size  Location     Type
  4743 ;;		None
  4744 ;; Auto vars:     Size  Location     Type
  4745 ;;		None
  4746 ;; Return value:  Size  Location     Type
  4747 ;;                  1    wreg      void 
  4748 ;; Registers used:
  4749 ;;		None
  4750 ;; Tracked objects:
  4751 ;;		On entry : 0/0
  4752 ;;		On exit  : 0/0
  4753 ;;		Unchanged: 0/0
  4754 ;; Data sizes:     COMRAM   BANK0   BANK1   BANK2   BANK3   BANK4   BANK5   BANK6   BANK7   BANK8   BANK9  BANK10  BANK1
      +1  BANK12  BANK13  BANK14  BANK15
  4755 ;;      Params:         0       0       0       0       0       0       0       0       0       0       0       0       
      +0       0       0       0       0
  4756 ;;      Locals:         0       0       0       0       0       0       0       0       0       0       0       0       
      +0       0       0       0       0
  4757 ;;      Temps:          0       0       0       0       0       0       0       0       0       0       0       0       
      +0       0       0       0       0
  4758 ;;      Totals:         0       0       0       0       0       0       0       0       0       0       0       0       
      +0       0       0       0       0
  4759 ;;Total ram usage:        0 bytes
  4760 ;; Hardware stack levels used: 1
  4761 ;; This function calls:
  4762 ;;		Nothing
  4763 ;; This function is called by:
  4764 ;;		_Interrupt_Manager
  4765 ;; This function uses a non-reentrant model
  4766 ;;
  4767                           
  4768                           	psect	text21
  4769   0028AC                     __ptext21:
  4770                           	callstack 0
  4771   0028AC                     _TIMER1_ISR:
  4772                           	callstack 25
  4773   0028AC                     
  4774                           ;MCAL_Layer/Timer1/hal_timer1.c: 117: (PIR1bits.TMR1IF = 0);
  4775   0028AC  909E               	bcf	158,0,c	;volatile
  4776                           
  4777                           ;MCAL_Layer/Timer1/hal_timer1.c: 118: TMR1H = (timer1_preload) >> 8;
  4778   0028AE  C08B  FFCF         	movff	_timer1_preload+1,4047	;volatile
  4779                           
  4780                           ;MCAL_Layer/Timer1/hal_timer1.c: 119: TMR1L = (uint_8)(timer1_preload);
  4781   0028B2  C08A  FFCE         	movff	_timer1_preload,4046	;volatile
  4782   0028B6  0012               	return		;funcret
  4783   0028B8                     __end_of_TIMER1_ISR:
  4784                           	callstack 0
  4785                           
  4786 ;; *************** function _TIMER0_ISR *****************
  4787 ;; Defined at:
  4788 ;;		line 95 in file "MCAL_Layer/Timer/hal_Timer0.c"
  4789 ;; Parameters:    Size  Location     Type
  4790 ;;		None
  4791 ;; Auto vars:     Size  Location     Type
  4792 ;;		None
  4793 ;; Return value:  Size  Location     Type
  4794 ;;                  1    wreg      void 
  4795 ;; Registers used:
  4796 ;;		wreg, status,2
  4797 ;; Tracked objects:
  4798 ;;		On entry : 0/0
  4799 ;;		On exit  : 0/0
  4800 ;;		Unchanged: 0/0
  4801 ;; Data sizes:     COMRAM   BANK0   BANK1   BANK2   BANK3   BANK4   BANK5   BANK6   BANK7   BANK8   BANK9  BANK10  BANK1
      +1  BANK12  BANK13  BANK14  BANK15
  4802 ;;      Params:         0       0       0       0       0       0       0       0       0       0       0       0       
      +0       0       0       0       0
  4803 ;;      Locals:         0       0       0       0       0       0       0       0       0       0       0       0       
      +0       0       0       0       0
  4804 ;;      Temps:          0       0       0       0       0       0       0       0       0       0       0       0       
      +0       0       0       0       0
  4805 ;;      Totals:         0       0       0       0       0       0       0       0       0       0       0       0       
      +0       0       0       0       0
  4806 ;;Total ram usage:        0 bytes
  4807 ;; Hardware stack levels used: 1
  4808 ;; This function calls:
  4809 ;;		Nothing
  4810 ;; This function is called by:
  4811 ;;		_Interrupt_Manager
  4812 ;; This function uses a non-reentrant model
  4813 ;;
  4814                           
  4815                           	psect	text22
  4816   0028B8                     __ptext22:
  4817                           	callstack 0
  4818   0028B8                     _TIMER0_ISR:
  4819                           	callstack 25
  4820   0028B8                     
  4821                           ;MCAL_Layer/Timer/hal_Timer0.c: 96: (INTCONbits.TMR0IF = 0);
  4822   0028B8  94F2               	bcf	242,2,c	;volatile
  4823   0028BA                     
  4824                           ;MCAL_Layer/Timer/hal_Timer0.c: 97: TMR0H = (timer0_preload)>>8;
  4825   0028BA  504B               	movf	(_timer0_preload+1)^0,w,c
  4826   0028BC  6ED7               	movwf	215,c	;volatile
  4827   0028BE                     
  4828                           ;MCAL_Layer/Timer/hal_Timer0.c: 98: TMR0L = (uint_8)(timer0_preload);
  4829   0028BE  C04A  FFD6         	movff	_timer0_preload,4054	;volatile
  4830   0028C2  0012               	return		;funcret
  4831   0028C4                     __end_of_TIMER0_ISR:
  4832                           	callstack 0
  4833                           
  4834 ;; *************** function _RB7_ISR *****************
  4835 ;; Defined at:
  4836 ;;		line 500 in file "MCAL_Layer/interrupt/mcal_external_interrupt.c"
  4837 ;; Parameters:    Size  Location     Type
  4838 ;;  source          1    wreg     unsigned char 
  4839 ;; Auto vars:     Size  Location     Type
  4840 ;;  source          1    0[COMRAM] unsigned char 
  4841 ;; Return value:  Size  Location     Type
  4842 ;;                  1    wreg      void 
  4843 ;; Registers used:
  4844 ;;		wreg, status,2, status,0
  4845 ;; Tracked objects:
  4846 ;;		On entry : 0/0
  4847 ;;		On exit  : 0/0
  4848 ;;		Unchanged: 0/0
  4849 ;; Data sizes:     COMRAM   BANK0   BANK1   BANK2   BANK3   BANK4   BANK5   BANK6   BANK7   BANK8   BANK9  BANK10  BANK1
      +1  BANK12  BANK13  BANK14  BANK15
  4850 ;;      Params:         0       0       0       0       0       0       0       0       0       0       0       0       
      +0       0       0       0       0
  4851 ;;      Locals:         1       0       0       0       0       0       0       0       0       0       0       0       
      +0       0       0       0       0
  4852 ;;      Temps:          0       0       0       0       0       0       0       0       0       0       0       0       
      +0       0       0       0       0
  4853 ;;      Totals:         1       0       0       0       0       0       0       0       0       0       0       0       
      +0       0       0       0       0
  4854 ;;Total ram usage:        1 bytes
  4855 ;; Hardware stack levels used: 1
  4856 ;; This function calls:
  4857 ;;		Nothing
  4858 ;; This function is called by:
  4859 ;;		_Interrupt_Manager
  4860 ;; This function uses a non-reentrant model
  4861 ;;
  4862                           
  4863                           	psect	text23
  4864   002838                     __ptext23:
  4865                           	callstack 0
  4866   002838                     _RB7_ISR:
  4867                           	callstack 25
  4868                           
  4869                           ;incstack = 0
  4870                           ;RB7_ISR@source stored from wreg
  4871   002838  6E01               	movwf	RB7_ISR@source^0,c
  4872   00283A                     
  4873                           ;MCAL_Layer/interrupt/mcal_external_interrupt.c: 501:  (INTCONbits.RBIF = 0);
  4874   00283A  90F2               	bcf	242,0,c	;volatile
  4875   00283C                     
  4876                           ;MCAL_Layer/interrupt/mcal_external_interrupt.c: 502: if(source == 0){
  4877   00283C  5001               	movf	RB7_ISR@source^0,w,c
  4878   00283E  A4D8               	btfss	status,2,c
  4879   002840  EF24  F014         	goto	i2u148_41
  4880   002844  EF26  F014         	goto	i2u148_40
  4881   002848                     i2u148_41:
  4882   002848  EF28  F014         	goto	i2l3379
  4883   00284C                     i2u148_40:
  4884   00284C  EF28  F014         	goto	i2l1025
  4885   002850                     i2l3379:
  4886   002850                     i2l1025:
  4887   002850  0012               	return		;funcret
  4888   002852                     __end_of_RB7_ISR:
  4889                           	callstack 0
  4890                           
  4891 ;; *************** function _RB6_ISR *****************
  4892 ;; Defined at:
  4893 ;;		line 488 in file "MCAL_Layer/interrupt/mcal_external_interrupt.c"
  4894 ;; Parameters:    Size  Location     Type
  4895 ;;  source          1    wreg     unsigned char 
  4896 ;; Auto vars:     Size  Location     Type
  4897 ;;  source          1    0[COMRAM] unsigned char 
  4898 ;; Return value:  Size  Location     Type
  4899 ;;                  1    wreg      void 
  4900 ;; Registers used:
  4901 ;;		wreg, status,2, status,0
  4902 ;; Tracked objects:
  4903 ;;		On entry : 0/0
  4904 ;;		On exit  : 0/0
  4905 ;;		Unchanged: 0/0
  4906 ;; Data sizes:     COMRAM   BANK0   BANK1   BANK2   BANK3   BANK4   BANK5   BANK6   BANK7   BANK8   BANK9  BANK10  BANK1
      +1  BANK12  BANK13  BANK14  BANK15
  4907 ;;      Params:         0       0       0       0       0       0       0       0       0       0       0       0       
      +0       0       0       0       0
  4908 ;;      Locals:         1       0       0       0       0       0       0       0       0       0       0       0       
      +0       0       0       0       0
  4909 ;;      Temps:          0       0       0       0       0       0       0       0       0       0       0       0       
      +0       0       0       0       0
  4910 ;;      Totals:         1       0       0       0       0       0       0       0       0       0       0       0       
      +0       0       0       0       0
  4911 ;;Total ram usage:        1 bytes
  4912 ;; Hardware stack levels used: 1
  4913 ;; This function calls:
  4914 ;;		Nothing
  4915 ;; This function is called by:
  4916 ;;		_Interrupt_Manager
  4917 ;; This function uses a non-reentrant model
  4918 ;;
  4919                           
  4920                           	psect	text24
  4921   002852                     __ptext24:
  4922                           	callstack 0
  4923   002852                     _RB6_ISR:
  4924                           	callstack 25
  4925                           
  4926                           ;incstack = 0
  4927                           ;RB6_ISR@source stored from wreg
  4928   002852  6E01               	movwf	RB6_ISR@source^0,c
  4929   002854                     
  4930                           ;MCAL_Layer/interrupt/mcal_external_interrupt.c: 489:  (INTCONbits.RBIF = 0);
  4931   002854  90F2               	bcf	242,0,c	;volatile
  4932   002856                     
  4933                           ;MCAL_Layer/interrupt/mcal_external_interrupt.c: 490: if(source == 0){
  4934   002856  5001               	movf	RB6_ISR@source^0,w,c
  4935   002858  A4D8               	btfss	status,2,c
  4936   00285A  EF31  F014         	goto	i2u147_41
  4937   00285E  EF33  F014         	goto	i2u147_40
  4938   002862                     i2u147_41:
  4939   002862  EF35  F014         	goto	i2l3365
  4940   002866                     i2u147_40:
  4941   002866  EF35  F014         	goto	i2l1014
  4942   00286A                     i2l3365:
  4943   00286A                     i2l1014:
  4944   00286A  0012               	return		;funcret
  4945   00286C                     __end_of_RB6_ISR:
  4946                           	callstack 0
  4947                           
  4948 ;; *************** function _RB5_ISR *****************
  4949 ;; Defined at:
  4950 ;;		line 476 in file "MCAL_Layer/interrupt/mcal_external_interrupt.c"
  4951 ;; Parameters:    Size  Location     Type
  4952 ;;  source          1    wreg     unsigned char 
  4953 ;; Auto vars:     Size  Location     Type
  4954 ;;  source          1    0[COMRAM] unsigned char 
  4955 ;; Return value:  Size  Location     Type
  4956 ;;                  1    wreg      void 
  4957 ;; Registers used:
  4958 ;;		wreg, status,2, status,0
  4959 ;; Tracked objects:
  4960 ;;		On entry : 0/0
  4961 ;;		On exit  : 0/0
  4962 ;;		Unchanged: 0/0
  4963 ;; Data sizes:     COMRAM   BANK0   BANK1   BANK2   BANK3   BANK4   BANK5   BANK6   BANK7   BANK8   BANK9  BANK10  BANK1
      +1  BANK12  BANK13  BANK14  BANK15
  4964 ;;      Params:         0       0       0       0       0       0       0       0       0       0       0       0       
      +0       0       0       0       0
  4965 ;;      Locals:         1       0       0       0       0       0       0       0       0       0       0       0       
      +0       0       0       0       0
  4966 ;;      Temps:          0       0       0       0       0       0       0       0       0       0       0       0       
      +0       0       0       0       0
  4967 ;;      Totals:         1       0       0       0       0       0       0       0       0       0       0       0       
      +0       0       0       0       0
  4968 ;;Total ram usage:        1 bytes
  4969 ;; Hardware stack levels used: 1
  4970 ;; This function calls:
  4971 ;;		Nothing
  4972 ;; This function is called by:
  4973 ;;		_Interrupt_Manager
  4974 ;; This function uses a non-reentrant model
  4975 ;;
  4976                           
  4977                           	psect	text25
  4978   00286C                     __ptext25:
  4979                           	callstack 0
  4980   00286C                     _RB5_ISR:
  4981                           	callstack 25
  4982                           
  4983                           ;incstack = 0
  4984                           ;RB5_ISR@source stored from wreg
  4985   00286C  6E01               	movwf	RB5_ISR@source^0,c
  4986   00286E                     
  4987                           ;MCAL_Layer/interrupt/mcal_external_interrupt.c: 477:  (INTCONbits.RBIF = 0);
  4988   00286E  90F2               	bcf	242,0,c	;volatile
  4989   002870                     
  4990                           ;MCAL_Layer/interrupt/mcal_external_interrupt.c: 478: if(source == 0){
  4991   002870  5001               	movf	RB5_ISR@source^0,w,c
  4992   002872  A4D8               	btfss	status,2,c
  4993   002874  EF3E  F014         	goto	i2u146_41
  4994   002878  EF40  F014         	goto	i2u146_40
  4995   00287C                     i2u146_41:
  4996   00287C  EF42  F014         	goto	i2l3351
  4997   002880                     i2u146_40:
  4998   002880  EF42  F014         	goto	i2l1003
  4999   002884                     i2l3351:
  5000   002884                     i2l1003:
  5001   002884  0012               	return		;funcret
  5002   002886                     __end_of_RB5_ISR:
  5003                           	callstack 0
  5004                           
  5005 ;; *************** function _RB4_ISR *****************
  5006 ;; Defined at:
  5007 ;;		line 463 in file "MCAL_Layer/interrupt/mcal_external_interrupt.c"
  5008 ;; Parameters:    Size  Location     Type
  5009 ;;  source          1    wreg     unsigned char 
  5010 ;; Auto vars:     Size  Location     Type
  5011 ;;  source          1    0[COMRAM] unsigned char 
  5012 ;; Return value:  Size  Location     Type
  5013 ;;                  1    wreg      void 
  5014 ;; Registers used:
  5015 ;;		wreg, status,2, status,0
  5016 ;; Tracked objects:
  5017 ;;		On entry : 0/0
  5018 ;;		On exit  : 0/0
  5019 ;;		Unchanged: 0/0
  5020 ;; Data sizes:     COMRAM   BANK0   BANK1   BANK2   BANK3   BANK4   BANK5   BANK6   BANK7   BANK8   BANK9  BANK10  BANK1
      +1  BANK12  BANK13  BANK14  BANK15
  5021 ;;      Params:         0       0       0       0       0       0       0       0       0       0       0       0       
      +0       0       0       0       0
  5022 ;;      Locals:         1       0       0       0       0       0       0       0       0       0       0       0       
      +0       0       0       0       0
  5023 ;;      Temps:          0       0       0       0       0       0       0       0       0       0       0       0       
      +0       0       0       0       0
  5024 ;;      Totals:         1       0       0       0       0       0       0       0       0       0       0       0       
      +0       0       0       0       0
  5025 ;;Total ram usage:        1 bytes
  5026 ;; Hardware stack levels used: 1
  5027 ;; This function calls:
  5028 ;;		Nothing
  5029 ;; This function is called by:
  5030 ;;		_Interrupt_Manager
  5031 ;; This function uses a non-reentrant model
  5032 ;;
  5033                           
  5034                           	psect	text26
  5035   002886                     __ptext26:
  5036                           	callstack 0
  5037   002886                     _RB4_ISR:
  5038                           	callstack 25
  5039                           
  5040                           ;incstack = 0
  5041                           ;RB4_ISR@source stored from wreg
  5042   002886  6E01               	movwf	RB4_ISR@source^0,c
  5043   002888                     
  5044                           ;MCAL_Layer/interrupt/mcal_external_interrupt.c: 464: (INTCONbits.RBIF = 0);
  5045   002888  90F2               	bcf	242,0,c	;volatile
  5046   00288A                     
  5047                           ;MCAL_Layer/interrupt/mcal_external_interrupt.c: 466: if(source == 0){
  5048   00288A  5001               	movf	RB4_ISR@source^0,w,c
  5049   00288C  A4D8               	btfss	status,2,c
  5050   00288E  EF4B  F014         	goto	i2u145_41
  5051   002892  EF4D  F014         	goto	i2u145_40
  5052   002896                     i2u145_41:
  5053   002896  EF4F  F014         	goto	i2l3337
  5054   00289A                     i2u145_40:
  5055   00289A  EF4F  F014         	goto	i2l992
  5056   00289E                     i2l3337:
  5057   00289E                     i2l992:
  5058   00289E  0012               	return		;funcret
  5059   0028A0                     __end_of_RB4_ISR:
  5060                           	callstack 0
  5061                           
  5062 ;; *************** function _MSSP_I2C_ISR *****************
  5063 ;; Defined at:
  5064 ;;		line 207 in file "MCAL_Layer/I2C/hal_i2c.c"
  5065 ;; Parameters:    Size  Location     Type
  5066 ;;		None
  5067 ;; Auto vars:     Size  Location     Type
  5068 ;;		None
  5069 ;; Return value:  Size  Location     Type
  5070 ;;                  1    wreg      void 
  5071 ;; Registers used:
  5072 ;;		wreg, status,2, status,0, pcl, pclath, pclatu, tosl, cstack
  5073 ;; Tracked objects:
  5074 ;;		On entry : 0/0
  5075 ;;		On exit  : 0/0
  5076 ;;		Unchanged: 0/0
  5077 ;; Data sizes:     COMRAM   BANK0   BANK1   BANK2   BANK3   BANK4   BANK5   BANK6   BANK7   BANK8   BANK9  BANK10  BANK1
      +1  BANK12  BANK13  BANK14  BANK15
  5078 ;;      Params:         0       0       0       0       0       0       0       0       0       0       0       0       
      +0       0       0       0       0
  5079 ;;      Locals:         0       0       0       0       0       0       0       0       0       0       0       0       
      +0       0       0       0       0
  5080 ;;      Temps:          0       0       0       0       0       0       0       0       0       0       0       0       
      +0       0       0       0       0
  5081 ;;      Totals:         0       0       0       0       0       0       0       0       0       0       0       0       
      +0       0       0       0       0
  5082 ;;Total ram usage:        0 bytes
  5083 ;; Hardware stack levels used: 1
  5084 ;; Hardware stack levels required when called: 1
  5085 ;; This function calls:
  5086 ;;		NULL
  5087 ;;		_MSSP_I2C_Defualt_Interrupt_Hundeler
  5088 ;; This function is called by:
  5089 ;;		_Interrupt_Manager
  5090 ;; This function uses a non-reentrant model
  5091 ;;
  5092                           
  5093                           	psect	text27
  5094   0027EE                     __ptext27:
  5095                           	callstack 0
  5096   0027EE                     _MSSP_I2C_ISR:
  5097                           	callstack 24
  5098   0027EE                     
  5099                           ;MCAL_Layer/I2C/hal_i2c.c: 209: (PIR1bits.SSPIF = 0);
  5100   0027EE  969E               	bcf	158,3,c	;volatile
  5101   0027F0                     
  5102                           ;MCAL_Layer/I2C/hal_i2c.c: 210: if(I2C_Defualt_Interrupt_Hundeler){
  5103   0027F0  5048               	movf	_I2C_Defualt_Interrupt_Hundeler^0,w,c
  5104   0027F2  1049               	iorwf	(_I2C_Defualt_Interrupt_Hundeler+1)^0,w,c
  5105   0027F4  B4D8               	btfsc	status,2,c
  5106   0027F6  EFFF  F013         	goto	i2u149_41
  5107   0027FA  EF01  F014         	goto	i2u149_40
  5108   0027FE                     i2u149_41:
  5109   0027FE  EF0D  F014         	goto	i2l1650
  5110   002802                     i2u149_40:
  5111   002802                     
  5112                           ;MCAL_Layer/I2C/hal_i2c.c: 211: I2C_Defualt_Interrupt_Hundeler();
  5113   002802  D802               	call	i2u150_48
  5114   002804  EF0D  F014         	goto	i2u150_49
  5115   002808                     i2u150_48:
  5116   002808  0005               	push	
  5117   00280A  6EFA               	movwf	pclath,c
  5118   00280C  5048               	movf	_I2C_Defualt_Interrupt_Hundeler^0,w,c
  5119   00280E  6EFD               	movwf	tosl,c
  5120   002810  5049               	movf	(_I2C_Defualt_Interrupt_Hundeler+1)^0,w,c
  5121   002812  6EFE               	movwf	tosh,c
  5122   002814  6AFF               	clrf	tosu,c
  5123   002816  50FA               	movf	pclath,w,c
  5124   002818  0012               	return		;indir
  5125   00281A                     i2u150_49:
  5126   00281A                     i2l1650:
  5127   00281A  0012               	return		;funcret
  5128   00281C                     __end_of_MSSP_I2C_ISR:
  5129                           	callstack 0
  5130                           
  5131 ;; *************** function _MSSP_I2C_Defualt_Interrupt_Hundeler *****************
  5132 ;; Defined at:
  5133 ;;		line 12 in file "application.c"
  5134 ;; Parameters:    Size  Location     Type
  5135 ;;		None
  5136 ;; Auto vars:     Size  Location     Type
  5137 ;;  dummy_buffer    1    0        unsigned char 
  5138 ;; Return value:  Size  Location     Type
  5139 ;;                  1    wreg      void 
  5140 ;; Registers used:
  5141 ;;		wreg
  5142 ;; Tracked objects:
  5143 ;;		On entry : 0/0
  5144 ;;		On exit  : 0/0
  5145 ;;		Unchanged: 0/0
  5146 ;; Data sizes:     COMRAM   BANK0   BANK1   BANK2   BANK3   BANK4   BANK5   BANK6   BANK7   BANK8   BANK9  BANK10  BANK1
      +1  BANK12  BANK13  BANK14  BANK15
  5147 ;;      Params:         0       0       0       0       0       0       0       0       0       0       0       0       
      +0       0       0       0       0
  5148 ;;      Locals:         0       0       0       0       0       0       0       0       0       0       0       0       
      +0       0       0       0       0
  5149 ;;      Temps:          0       0       0       0       0       0       0       0       0       0       0       0       
      +0       0       0       0       0
  5150 ;;      Totals:         0       0       0       0       0       0       0       0       0       0       0       0       
      +0       0       0       0       0
  5151 ;;Total ram usage:        0 bytes
  5152 ;; Hardware stack levels used: 1
  5153 ;; This function calls:
  5154 ;;		Nothing
  5155 ;; This function is called by:
  5156 ;;		_I2C_init
  5157 ;;		_MSSP_I2C_ISR
  5158 ;; This function uses a non-reentrant model
  5159 ;;
  5160                           
  5161                           	psect	text28
  5162   00271C                     __ptext28:
  5163                           	callstack 0
  5164   00271C                     _MSSP_I2C_Defualt_Interrupt_Hundeler:
  5165                           	callstack 24
  5166   00271C                     
  5167                           ;application.c: 14: (SSPCON1bits.CKP = 0);
  5168   00271C  98C6               	bcf	198,4,c	;volatile
  5169                           
  5170                           ;application.c: 15: if((SSPSTATbits.R_nW == 0) && (SSPSTATbits.D_nA == 0)){
  5171   00271E  B4C7               	btfsc	199,2,c	;volatile
  5172   002720  EF94  F013         	goto	i2u97_41
  5173   002724  EF96  F013         	goto	i2u97_40
  5174   002728                     i2u97_41:
  5175   002728  EFA9  F013         	goto	i2l1508
  5176   00272C                     i2u97_40:
  5177   00272C  BAC7               	btfsc	199,5,c	;volatile
  5178   00272E  EF9B  F013         	goto	i2u98_41
  5179   002732  EF9D  F013         	goto	i2u98_40
  5180   002736                     i2u98_41:
  5181   002736  EFA9  F013         	goto	i2l1508
  5182   00273A                     i2u98_40:
  5183   00273A  50C9               	movf	201,w,c	;volatile
  5184   00273C                     i2l1509:
  5185   00273C  A0C7               	btfss	199,0,c	;volatile
  5186   00273E  EFA3  F013         	goto	i2u99_41
  5187   002742  EFA5  F013         	goto	i2u99_40
  5188   002746                     i2u99_41:
  5189   002746  EF9E  F013         	goto	i2l1509
  5190   00274A                     i2u99_40:
  5191   00274A                     
  5192                           ;application.c: 18:     slave2_data = SSPBUF;
  5193   00274A  CFC9 F06E          	movff	4041,_slave2_data	;volatile
  5194                           
  5195                           ;application.c: 19: }
  5196   00274E  EFAA  F013         	goto	i2l1512
  5197   002752                     i2l1508:
  5198   002752  50C7               	movf	199,w,c	;volatile
  5199   002754                     i2l1512:
  5200                           
  5201                           ;application.c: 25: (SSPCON1bits.CKP = 1);
  5202   002754  88C6               	bsf	198,4,c	;volatile
  5203   002756  0012               	return		;funcret
  5204   002758                     __end_of_MSSP_I2C_Defualt_Interrupt_Hundeler:
  5205                           	callstack 0
  5206                           
  5207 ;; *************** function _MSSP_I2C_BC_ISR *****************
  5208 ;; Defined at:
  5209 ;;		line 216 in file "MCAL_Layer/I2C/hal_i2c.c"
  5210 ;; Parameters:    Size  Location     Type
  5211 ;;		None
  5212 ;; Auto vars:     Size  Location     Type
  5213 ;;		None
  5214 ;; Return value:  Size  Location     Type
  5215 ;;                  1    wreg      void 
  5216 ;; Registers used:
  5217 ;;		None
  5218 ;; Tracked objects:
  5219 ;;		On entry : 0/0
  5220 ;;		On exit  : 0/0
  5221 ;;		Unchanged: 0/0
  5222 ;; Data sizes:     COMRAM   BANK0   BANK1   BANK2   BANK3   BANK4   BANK5   BANK6   BANK7   BANK8   BANK9  BANK10  BANK1
      +1  BANK12  BANK13  BANK14  BANK15
  5223 ;;      Params:         0       0       0       0       0       0       0       0       0       0       0       0       
      +0       0       0       0       0
  5224 ;;      Locals:         0       0       0       0       0       0       0       0       0       0       0       0       
      +0       0       0       0       0
  5225 ;;      Temps:          0       0       0       0       0       0       0       0       0       0       0       0       
      +0       0       0       0       0
  5226 ;;      Totals:         0       0       0       0       0       0       0       0       0       0       0       0       
      +0       0       0       0       0
  5227 ;;Total ram usage:        0 bytes
  5228 ;; Hardware stack levels used: 1
  5229 ;; This function calls:
  5230 ;;		Nothing
  5231 ;; This function is called by:
  5232 ;;		_Interrupt_Manager
  5233 ;; This function uses a non-reentrant model
  5234 ;;
  5235                           
  5236                           	psect	text29
  5237   0028D8                     __ptext29:
  5238                           	callstack 0
  5239   0028D8                     _MSSP_I2C_BC_ISR:
  5240                           	callstack 25
  5241   0028D8                     
  5242                           ;MCAL_Layer/I2C/hal_i2c.c: 218: (PIR2bits.BCLIF = 0);
  5243   0028D8  96A1               	bcf	161,3,c	;volatile
  5244   0028DA  0012               	return		;funcret
  5245   0028DC                     __end_of_MSSP_I2C_BC_ISR:
  5246                           	callstack 0
  5247                           
  5248 ;; *************** function _INT2_ISR *****************
  5249 ;; Defined at:
  5250 ;;		line 454 in file "MCAL_Layer/interrupt/mcal_external_interrupt.c"
  5251 ;; Parameters:    Size  Location     Type
  5252 ;;		None
  5253 ;; Auto vars:     Size  Location     Type
  5254 ;;		None
  5255 ;; Return value:  Size  Location     Type
  5256 ;;                  1    wreg      void 
  5257 ;; Registers used:
  5258 ;;		None
  5259 ;; Tracked objects:
  5260 ;;		On entry : 0/0
  5261 ;;		On exit  : 0/0
  5262 ;;		Unchanged: 0/0
  5263 ;; Data sizes:     COMRAM   BANK0   BANK1   BANK2   BANK3   BANK4   BANK5   BANK6   BANK7   BANK8   BANK9  BANK10  BANK1
      +1  BANK12  BANK13  BANK14  BANK15
  5264 ;;      Params:         0       0       0       0       0       0       0       0       0       0       0       0       
      +0       0       0       0       0
  5265 ;;      Locals:         0       0       0       0       0       0       0       0       0       0       0       0       
      +0       0       0       0       0
  5266 ;;      Temps:          0       0       0       0       0       0       0       0       0       0       0       0       
      +0       0       0       0       0
  5267 ;;      Totals:         0       0       0       0       0       0       0       0       0       0       0       0       
      +0       0       0       0       0
  5268 ;;Total ram usage:        0 bytes
  5269 ;; Hardware stack levels used: 1
  5270 ;; This function calls:
  5271 ;;		Nothing
  5272 ;; This function is called by:
  5273 ;;		_Interrupt_Manager
  5274 ;; This function uses a non-reentrant model
  5275 ;;
  5276                           
  5277                           	psect	text30
  5278   0028DC                     __ptext30:
  5279                           	callstack 0
  5280   0028DC                     _INT2_ISR:
  5281                           	callstack 25
  5282   0028DC                     
  5283                           ;MCAL_Layer/interrupt/mcal_external_interrupt.c: 456:     (INTCON3bits.INT2IF = 0);
  5284   0028DC  92F0               	bcf	240,1,c	;volatile
  5285   0028DE  0012               	return		;funcret
  5286   0028E0                     __end_of_INT2_ISR:
  5287                           	callstack 0
  5288                           
  5289 ;; *************** function _INT1_ISR *****************
  5290 ;; Defined at:
  5291 ;;		line 446 in file "MCAL_Layer/interrupt/mcal_external_interrupt.c"
  5292 ;; Parameters:    Size  Location     Type
  5293 ;;		None
  5294 ;; Auto vars:     Size  Location     Type
  5295 ;;		None
  5296 ;; Return value:  Size  Location     Type
  5297 ;;                  1    wreg      void 
  5298 ;; Registers used:
  5299 ;;		None
  5300 ;; Tracked objects:
  5301 ;;		On entry : 0/0
  5302 ;;		On exit  : 0/0
  5303 ;;		Unchanged: 0/0
  5304 ;; Data sizes:     COMRAM   BANK0   BANK1   BANK2   BANK3   BANK4   BANK5   BANK6   BANK7   BANK8   BANK9  BANK10  BANK1
      +1  BANK12  BANK13  BANK14  BANK15
  5305 ;;      Params:         0       0       0       0       0       0       0       0       0       0       0       0       
      +0       0       0       0       0
  5306 ;;      Locals:         0       0       0       0       0       0       0       0       0       0       0       0       
      +0       0       0       0       0
  5307 ;;      Temps:          0       0       0       0       0       0       0       0       0       0       0       0       
      +0       0       0       0       0
  5308 ;;      Totals:         0       0       0       0       0       0       0       0       0       0       0       0       
      +0       0       0       0       0
  5309 ;;Total ram usage:        0 bytes
  5310 ;; Hardware stack levels used: 1
  5311 ;; This function calls:
  5312 ;;		Nothing
  5313 ;; This function is called by:
  5314 ;;		_Interrupt_Manager
  5315 ;; This function uses a non-reentrant model
  5316 ;;
  5317                           
  5318                           	psect	text31
  5319   0028E0                     __ptext31:
  5320                           	callstack 0
  5321   0028E0                     _INT1_ISR:
  5322                           	callstack 25
  5323   0028E0                     
  5324                           ;MCAL_Layer/interrupt/mcal_external_interrupt.c: 448:     (INTCON3bits.INT1IF = 0);
  5325   0028E0  90F0               	bcf	240,0,c	;volatile
  5326   0028E2  0012               	return		;funcret
  5327   0028E4                     __end_of_INT1_ISR:
  5328                           	callstack 0
  5329                           
  5330 ;; *************** function _INT0_ISR *****************
  5331 ;; Defined at:
  5332 ;;		line 438 in file "MCAL_Layer/interrupt/mcal_external_interrupt.c"
  5333 ;; Parameters:    Size  Location     Type
  5334 ;;		None
  5335 ;; Auto vars:     Size  Location     Type
  5336 ;;		None
  5337 ;; Return value:  Size  Location     Type
  5338 ;;                  1    wreg      void 
  5339 ;; Registers used:
  5340 ;;		None
  5341 ;; Tracked objects:
  5342 ;;		On entry : 0/0
  5343 ;;		On exit  : 0/0
  5344 ;;		Unchanged: 0/0
  5345 ;; Data sizes:     COMRAM   BANK0   BANK1   BANK2   BANK3   BANK4   BANK5   BANK6   BANK7   BANK8   BANK9  BANK10  BANK1
      +1  BANK12  BANK13  BANK14  BANK15
  5346 ;;      Params:         0       0       0       0       0       0       0       0       0       0       0       0       
      +0       0       0       0       0
  5347 ;;      Locals:         0       0       0       0       0       0       0       0       0       0       0       0       
      +0       0       0       0       0
  5348 ;;      Temps:          0       0       0       0       0       0       0       0       0       0       0       0       
      +0       0       0       0       0
  5349 ;;      Totals:         0       0       0       0       0       0       0       0       0       0       0       0       
      +0       0       0       0       0
  5350 ;;Total ram usage:        0 bytes
  5351 ;; Hardware stack levels used: 1
  5352 ;; This function calls:
  5353 ;;		Nothing
  5354 ;; This function is called by:
  5355 ;;		_Interrupt_Manager
  5356 ;; This function uses a non-reentrant model
  5357 ;;
  5358                           
  5359                           	psect	text32
  5360   0028E4                     __ptext32:
  5361                           	callstack 0
  5362   0028E4                     _INT0_ISR:
  5363                           	callstack 25
  5364   0028E4                     
  5365                           ;MCAL_Layer/interrupt/mcal_external_interrupt.c: 440:     (INTCONbits.INT0IF = 0);
  5366   0028E4  92F2               	bcf	242,1,c	;volatile
  5367   0028E6  0012               	return		;funcret
  5368   0028E8                     __end_of_INT0_ISR:
  5369                           	callstack 0
  5370                           
  5371 ;; *************** function _EUSART_TX_ISR *****************
  5372 ;; Defined at:
  5373 ;;		line 253 in file "MCAL_Layer/UART/hal_uart.c"
  5374 ;; Parameters:    Size  Location     Type
  5375 ;;		None
  5376 ;; Auto vars:     Size  Location     Type
  5377 ;;		None
  5378 ;; Return value:  Size  Location     Type
  5379 ;;                  1    wreg      void 
  5380 ;; Registers used:
  5381 ;;		None
  5382 ;; Tracked objects:
  5383 ;;		On entry : 0/0
  5384 ;;		On exit  : 0/0
  5385 ;;		Unchanged: 0/0
  5386 ;; Data sizes:     COMRAM   BANK0   BANK1   BANK2   BANK3   BANK4   BANK5   BANK6   BANK7   BANK8   BANK9  BANK10  BANK1
      +1  BANK12  BANK13  BANK14  BANK15
  5387 ;;      Params:         0       0       0       0       0       0       0       0       0       0       0       0       
      +0       0       0       0       0
  5388 ;;      Locals:         0       0       0       0       0       0       0       0       0       0       0       0       
      +0       0       0       0       0
  5389 ;;      Temps:          0       0       0       0       0       0       0       0       0       0       0       0       
      +0       0       0       0       0
  5390 ;;      Totals:         0       0       0       0       0       0       0       0       0       0       0       0       
      +0       0       0       0       0
  5391 ;;Total ram usage:        0 bytes
  5392 ;; Hardware stack levels used: 1
  5393 ;; This function calls:
  5394 ;;		Nothing
  5395 ;; This function is called by:
  5396 ;;		_Interrupt_Manager
  5397 ;; This function uses a non-reentrant model
  5398 ;;
  5399                           
  5400                           	psect	text33
  5401   0028E8                     __ptext33:
  5402                           	callstack 0
  5403   0028E8                     _EUSART_TX_ISR:
  5404                           	callstack 25
  5405   0028E8                     
  5406                           ;MCAL_Layer/UART/hal_uart.c: 254:     (PIE1bits.TXIE = 0);
  5407   0028E8  989D               	bcf	157,4,c	;volatile
  5408   0028EA  0012               	return		;funcret
  5409   0028EC                     __end_of_EUSART_TX_ISR:
  5410                           	callstack 0
  5411                           
  5412 ;; *************** function _EUSART_RX_ISR *****************
  5413 ;; Defined at:
  5414 ;;		line 260 in file "MCAL_Layer/UART/hal_uart.c"
  5415 ;; Parameters:    Size  Location     Type
  5416 ;;		None
  5417 ;; Auto vars:     Size  Location     Type
  5418 ;;		None
  5419 ;; Return value:  Size  Location     Type
  5420 ;;                  1    wreg      void 
  5421 ;; Registers used:
  5422 ;;		wreg, status,2, status,0
  5423 ;; Tracked objects:
  5424 ;;		On entry : 0/0
  5425 ;;		On exit  : 0/0
  5426 ;;		Unchanged: 0/0
  5427 ;; Data sizes:     COMRAM   BANK0   BANK1   BANK2   BANK3   BANK4   BANK5   BANK6   BANK7   BANK8   BANK9  BANK10  BANK1
      +1  BANK12  BANK13  BANK14  BANK15
  5428 ;;      Params:         0       0       0       0       0       0       0       0       0       0       0       0       
      +0       0       0       0       0
  5429 ;;      Locals:         0       0       0       0       0       0       0       0       0       0       0       0       
      +0       0       0       0       0
  5430 ;;      Temps:          0       0       0       0       0       0       0       0       0       0       0       0       
      +0       0       0       0       0
  5431 ;;      Totals:         0       0       0       0       0       0       0       0       0       0       0       0       
      +0       0       0       0       0
  5432 ;;Total ram usage:        0 bytes
  5433 ;; Hardware stack levels used: 1
  5434 ;; This function calls:
  5435 ;;		Nothing
  5436 ;; This function is called by:
  5437 ;;		_Interrupt_Manager
  5438 ;; This function uses a non-reentrant model
  5439 ;;
  5440                           
  5441                           	psect	text34
  5442   0028F8                     __ptext34:
  5443                           	callstack 0
  5444   0028F8                     _EUSART_RX_ISR:
  5445                           	callstack 25
  5446   0028F8  0012               	return		;funcret
  5447   0028FA                     __end_of_EUSART_RX_ISR:
  5448                           	callstack 0
  5449                           
  5450 ;; *************** function _CCP2_ISR *****************
  5451 ;; Defined at:
  5452 ;;		line 439 in file "MCAL_Layer/CCP1/hal_ccp.c"
  5453 ;; Parameters:    Size  Location     Type
  5454 ;;		None
  5455 ;; Auto vars:     Size  Location     Type
  5456 ;;		None
  5457 ;; Return value:  Size  Location     Type
  5458 ;;                  1    wreg      void 
  5459 ;; Registers used:
  5460 ;;		None
  5461 ;; Tracked objects:
  5462 ;;		On entry : 0/0
  5463 ;;		On exit  : 0/0
  5464 ;;		Unchanged: 0/0
  5465 ;; Data sizes:     COMRAM   BANK0   BANK1   BANK2   BANK3   BANK4   BANK5   BANK6   BANK7   BANK8   BANK9  BANK10  BANK1
      +1  BANK12  BANK13  BANK14  BANK15
  5466 ;;      Params:         0       0       0       0       0       0       0       0       0       0       0       0       
      +0       0       0       0       0
  5467 ;;      Locals:         0       0       0       0       0       0       0       0       0       0       0       0       
      +0       0       0       0       0
  5468 ;;      Temps:          0       0       0       0       0       0       0       0       0       0       0       0       
      +0       0       0       0       0
  5469 ;;      Totals:         0       0       0       0       0       0       0       0       0       0       0       0       
      +0       0       0       0       0
  5470 ;;Total ram usage:        0 bytes
  5471 ;; Hardware stack levels used: 1
  5472 ;; This function calls:
  5473 ;;		Nothing
  5474 ;; This function is called by:
  5475 ;;		_Interrupt_Manager
  5476 ;; This function uses a non-reentrant model
  5477 ;;
  5478                           
  5479                           	psect	text35
  5480   0028EC                     __ptext35:
  5481                           	callstack 0
  5482   0028EC                     _CCP2_ISR:
  5483                           	callstack 25
  5484   0028EC                     
  5485                           ;MCAL_Layer/CCP1/hal_ccp.c: 440: (PIR2bits.CCP2IF = 0);
  5486   0028EC  90A1               	bcf	161,0,c	;volatile
  5487   0028EE  0012               	return		;funcret
  5488   0028F0                     __end_of_CCP2_ISR:
  5489                           	callstack 0
  5490                           
  5491 ;; *************** function _CCP1_ISR *****************
  5492 ;; Defined at:
  5493 ;;		line 432 in file "MCAL_Layer/CCP1/hal_ccp.c"
  5494 ;; Parameters:    Size  Location     Type
  5495 ;;		None
  5496 ;; Auto vars:     Size  Location     Type
  5497 ;;		None
  5498 ;; Return value:  Size  Location     Type
  5499 ;;                  1    wreg      void 
  5500 ;; Registers used:
  5501 ;;		None
  5502 ;; Tracked objects:
  5503 ;;		On entry : 0/0
  5504 ;;		On exit  : 0/0
  5505 ;;		Unchanged: 0/0
  5506 ;; Data sizes:     COMRAM   BANK0   BANK1   BANK2   BANK3   BANK4   BANK5   BANK6   BANK7   BANK8   BANK9  BANK10  BANK1
      +1  BANK12  BANK13  BANK14  BANK15
  5507 ;;      Params:         0       0       0       0       0       0       0       0       0       0       0       0       
      +0       0       0       0       0
  5508 ;;      Locals:         0       0       0       0       0       0       0       0       0       0       0       0       
      +0       0       0       0       0
  5509 ;;      Temps:          0       0       0       0       0       0       0       0       0       0       0       0       
      +0       0       0       0       0
  5510 ;;      Totals:         0       0       0       0       0       0       0       0       0       0       0       0       
      +0       0       0       0       0
  5511 ;;Total ram usage:        0 bytes
  5512 ;; Hardware stack levels used: 1
  5513 ;; This function calls:
  5514 ;;		Nothing
  5515 ;; This function is called by:
  5516 ;;		_Interrupt_Manager
  5517 ;; This function uses a non-reentrant model
  5518 ;;
  5519                           
  5520                           	psect	text36
  5521   0028F0                     __ptext36:
  5522                           	callstack 0
  5523   0028F0                     _CCP1_ISR:
  5524                           	callstack 25
  5525   0028F0                     
  5526                           ;MCAL_Layer/CCP1/hal_ccp.c: 433: (PIR1bits.CCP1IF = 0);
  5527   0028F0  949E               	bcf	158,2,c	;volatile
  5528   0028F2  0012               	return		;funcret
  5529   0028F4                     __end_of_CCP1_ISR:
  5530                           	callstack 0
  5531                           
  5532 ;; *************** function _ADC_ISR *****************
  5533 ;; Defined at:
  5534 ;;		line 265 in file "MCAL_Layer/ADC/hal_adc.c"
  5535 ;; Parameters:    Size  Location     Type
  5536 ;;		None
  5537 ;; Auto vars:     Size  Location     Type
  5538 ;;		None
  5539 ;; Return value:  Size  Location     Type
  5540 ;;                  1    wreg      void 
  5541 ;; Registers used:
  5542 ;;		None
  5543 ;; Tracked objects:
  5544 ;;		On entry : 0/0
  5545 ;;		On exit  : 0/0
  5546 ;;		Unchanged: 0/0
  5547 ;; Data sizes:     COMRAM   BANK0   BANK1   BANK2   BANK3   BANK4   BANK5   BANK6   BANK7   BANK8   BANK9  BANK10  BANK1
      +1  BANK12  BANK13  BANK14  BANK15
  5548 ;;      Params:         0       0       0       0       0       0       0       0       0       0       0       0       
      +0       0       0       0       0
  5549 ;;      Locals:         0       0       0       0       0       0       0       0       0       0       0       0       
      +0       0       0       0       0
  5550 ;;      Temps:          0       0       0       0       0       0       0       0       0       0       0       0       
      +0       0       0       0       0
  5551 ;;      Totals:         0       0       0       0       0       0       0       0       0       0       0       0       
      +0       0       0       0       0
  5552 ;;Total ram usage:        0 bytes
  5553 ;; Hardware stack levels used: 1
  5554 ;; This function calls:
  5555 ;;		Nothing
  5556 ;; This function is called by:
  5557 ;;		_Interrupt_Manager
  5558 ;; This function uses a non-reentrant model
  5559 ;;
  5560                           
  5561                           	psect	text37
  5562   0028F4                     __ptext37:
  5563                           	callstack 0
  5564   0028F4                     _ADC_ISR:
  5565                           	callstack 25
  5566   0028F4                     
  5567                           ;MCAL_Layer/ADC/hal_adc.c: 266: (PIR1bits.ADIF = 0);
  5568   0028F4  9C9E               	bcf	158,6,c	;volatile
  5569   0028F6  0012               	return		;funcret
  5570   0028F8                     __end_of_ADC_ISR:
  5571                           	callstack 0
  5572                           
  5573                           	psect	text38
  5574   000000                     __ptext38:
  5575                           	callstack 0
  5576   000000                     
  5577                           	psect	rparam
  5578   000000                     
  5579                           	psect	temp
  5580   00007C                     btemp:
  5581                           	callstack 0
  5582   00007C                     	ds	1
  5583   000000                     int$flags	set	btemp
  5584   000000                     wtemp8	set	btemp+1
  5585   000000                     ttemp5	set	btemp+1
  5586   000000                     ttemp6	set	btemp+4
  5587   000000                     ttemp7	set	btemp+8
  5588                           
  5589                           	psect	config
  5590                           
  5591                           ; Padding undefined space
  5592   300000                     	org	3145728
  5593   300000  FF                 	db	255
  5594                           
  5595                           ;Config register CONFIG1H @ 0x300001
  5596                           ;	Oscillator Selection bits
  5597                           ;	OSC = HS, HS oscillator
  5598                           ;	Fail-Safe Clock Monitor Enable bit
  5599                           ;	FCMEN = OFF, Fail-Safe Clock Monitor disabled
  5600                           ;	Internal/External Oscillator Switchover bit
  5601                           ;	IESO = OFF, Oscillator Switchover mode disabled
  5602   300001                     	org	3145729
  5603   300001  02                 	db	2
  5604                           
  5605                           ;Config register CONFIG2L @ 0x300002
  5606                           ;	Power-up Timer Enable bit
  5607                           ;	PWRT = OFF, PWRT disabled
  5608                           ;	Brown-out Reset Enable bits
  5609                           ;	BOREN = SBORDIS, Brown-out Reset enabled in hardware only (SBOREN is disabled)
  5610                           ;	Brown Out Reset Voltage bits
  5611                           ;	BORV = 3, Minimum setting
  5612   300002                     	org	3145730
  5613   300002  1F                 	db	31
  5614                           
  5615                           ;Config register CONFIG2H @ 0x300003
  5616                           ;	Watchdog Timer Enable bit
  5617                           ;	WDT = OFF, WDT disabled (control is placed on the SWDTEN bit)
  5618                           ;	Watchdog Timer Postscale Select bits
  5619                           ;	WDTPS = 32768, 1:32768
  5620   300003                     	org	3145731
  5621   300003  1E                 	db	30
  5622                           
  5623                           ; Padding undefined space
  5624   300004                     	org	3145732
  5625   300004  FF                 	db	255
  5626                           
  5627                           ;Config register CONFIG3H @ 0x300005
  5628                           ;	CCP2 MUX bit
  5629                           ;	CCP2MX = PORTC, CCP2 input/output is multiplexed with RC1
  5630                           ;	PORTB A/D Enable bit
  5631                           ;	PBADEN = OFF, PORTB<4:0> pins are configured as digital I/O on Reset
  5632                           ;	Low-Power Timer1 Oscillator Enable bit
  5633                           ;	LPT1OSC = OFF, Timer1 configured for higher power operation
  5634                           ;	MCLR Pin Enable bit
  5635                           ;	MCLRE = ON, MCLR pin enabled; RE3 input pin disabled
  5636   300005                     	org	3145733
  5637   300005  81                 	db	129
  5638                           
  5639                           ;Config register CONFIG4L @ 0x300006
  5640                           ;	Stack Full/Underflow Reset Enable bit
  5641                           ;	STVREN = ON, Stack full/underflow will cause Reset
  5642                           ;	Single-Supply ICSP Enable bit
  5643                           ;	LVP = OFF, Single-Supply ICSP disabled
  5644                           ;	Extended Instruction Set Enable bit
  5645                           ;	XINST = OFF, Instruction set extension and Indexed Addressing mode disabled (Legacy mo
      +                          de)
  5646                           ;	Background Debugger Enable bit
  5647                           ;	DEBUG = 0x1, unprogrammed default
  5648   300006                     	org	3145734
  5649   300006  81                 	db	129
  5650                           
  5651                           ; Padding undefined space
  5652   300007                     	org	3145735
  5653   300007  FF                 	db	255
  5654                           
  5655                           ;Config register CONFIG5L @ 0x300008
  5656                           ;	Code Protection bit
  5657                           ;	CP0 = OFF, Block 0 (000800-003FFFh) not code-protected
  5658                           ;	Code Protection bit
  5659                           ;	CP1 = OFF, Block 1 (004000-007FFFh) not code-protected
  5660                           ;	Code Protection bit
  5661                           ;	CP2 = OFF, Block 2 (008000-00BFFFh) not code-protected
  5662                           ;	Code Protection bit
  5663                           ;	CP3 = OFF, Block 3 (00C000-00FFFFh) not code-protected
  5664   300008                     	org	3145736
  5665   300008  0F                 	db	15
  5666                           
  5667                           ;Config register CONFIG5H @ 0x300009
  5668                           ;	Boot Block Code Protection bit
  5669                           ;	CPB = OFF, Boot block (000000-0007FFh) not code-protected
  5670                           ;	Data EEPROM Code Protection bit
  5671                           ;	CPD = OFF, Data EEPROM not code-protected
  5672   300009                     	org	3145737
  5673   300009  C0                 	db	192
  5674                           
  5675                           ;Config register CONFIG6L @ 0x30000A
  5676                           ;	Write Protection bit
  5677                           ;	WRT0 = OFF, Block 0 (000800-003FFFh) not write-protected
  5678                           ;	Write Protection bit
  5679                           ;	WRT1 = OFF, Block 1 (004000-007FFFh) not write-protected
  5680                           ;	Write Protection bit
  5681                           ;	WRT2 = OFF, Block 2 (008000-00BFFFh) not write-protected
  5682                           ;	Write Protection bit
  5683                           ;	WRT3 = OFF, Block 3 (00C000-00FFFFh) not write-protected
  5684   30000A                     	org	3145738
  5685   30000A  0F                 	db	15
  5686                           
  5687                           ;Config register CONFIG6H @ 0x30000B
  5688                           ;	Configuration Register Write Protection bit
  5689                           ;	WRTC = OFF, Configuration registers (300000-3000FFh) not write-protected
  5690                           ;	Boot Block Write Protection bit
  5691                           ;	WRTB = OFF, Boot Block (000000-0007FFh) not write-protected
  5692                           ;	Data EEPROM Write Protection bit
  5693                           ;	WRTD = OFF, Data EEPROM not write-protected
  5694   30000B                     	org	3145739
  5695   30000B  E0                 	db	224
  5696                           
  5697                           ;Config register CONFIG7L @ 0x30000C
  5698                           ;	Table Read Protection bit
  5699                           ;	EBTR0 = OFF, Block 0 (000800-003FFFh) not protected from table reads executed in other
      +                           blocks
  5700                           ;	Table Read Protection bit
  5701                           ;	EBTR1 = OFF, Block 1 (004000-007FFFh) not protected from table reads executed in other
      +                           blocks
  5702                           ;	Table Read Protection bit
  5703                           ;	EBTR2 = OFF, Block 2 (008000-00BFFFh) not protected from table reads executed in other
      +                           blocks
  5704                           ;	Table Read Protection bit
  5705                           ;	EBTR3 = OFF, Block 3 (00C000-00FFFFh) not protected from table reads executed in other
      +                           blocks
  5706   30000C                     	org	3145740
  5707   30000C  0F                 	db	15
  5708                           
  5709                           ;Config register CONFIG7H @ 0x30000D
  5710                           ;	Boot Block Table Read Protection bit
  5711                           ;	EBTRB = OFF, Boot Block (000000-0007FFh) not protected from table reads executed in ot
      +                          her blocks
  5712   30000D                     	org	3145741
  5713   30000D  40                 	db	64
  5714                           tosu	equ	0xFFF
  5715                           tosh	equ	0xFFE
  5716                           tosl	equ	0xFFD
  5717                           stkptr	equ	0xFFC
  5718                           pclatu	equ	0xFFB
  5719                           pclath	equ	0xFFA
  5720                           pcl	equ	0xFF9
  5721                           tblptru	equ	0xFF8
  5722                           tblptrh	equ	0xFF7
  5723                           tblptrl	equ	0xFF6
  5724                           tablat	equ	0xFF5
  5725                           prodh	equ	0xFF4
  5726                           prodl	equ	0xFF3
  5727                           indf0	equ	0xFEF
  5728                           postinc0	equ	0xFEE
  5729                           postdec0	equ	0xFED
  5730                           preinc0	equ	0xFEC
  5731                           plusw0	equ	0xFEB
  5732                           fsr0h	equ	0xFEA
  5733                           fsr0l	equ	0xFE9
  5734                           wreg	equ	0xFE8
  5735                           indf1	equ	0xFE7
  5736                           postinc1	equ	0xFE6
  5737                           postdec1	equ	0xFE5
  5738                           preinc1	equ	0xFE4
  5739                           plusw1	equ	0xFE3
  5740                           fsr1h	equ	0xFE2
  5741                           fsr1l	equ	0xFE1
  5742                           bsr	equ	0xFE0
  5743                           indf2	equ	0xFDF
  5744                           postinc2	equ	0xFDE
  5745                           postdec2	equ	0xFDD
  5746                           preinc2	equ	0xFDC
  5747                           plusw2	equ	0xFDB
  5748                           fsr2h	equ	0xFDA
  5749                           fsr2l	equ	0xFD9
  5750                           status	equ	0xFD8

Data Sizes:
    Strings     6
    Constant    0
    Data        99
    BSS         94
    Persistent  0
    Stack       0

Auto Spaces:
    Space          Size  Autos    Used
    COMRAM          126     71     123
    BANK0           128      3      96
    BANK1           256      0      48
    BANK2           256      0       0
    BANK3           256      0       0
    BANK4           256      0       0
    BANK5           256      0       0
    BANK6           256      0       0
    BANK7           256      0       0
    BANK8           256      0       0
    BANK9           256      0       0
    BANK10          256      0       0
    BANK11          256      0       0
    BANK12          256      0       0
    BANK13          256      0       0
    BANK14          256      0       0
    BANK15          128      0       0

Pointer List with Targets:

    vfprintf$2	PTR PTR void  size(2) Largest target is 2
		 -> sprintf@ap(COMRAM[2]), 

    vfprintf$1	PTR const unsigned char  size(2) Largest target is 3
		 -> STR_6(CODE[3]), STR_4(CODE[3]), STR_2(CODE[3]), 

    vfprintf$0	PTR struct _IO_FILE size(2) Largest target is 12
		 -> sprintf@f(COMRAM[12]), 

    S4798$source	PTR const unsigned char  size(2) Largest target is 0

    f...source	PTR const unsigned char  size(2) Largest target is 0

    S4798$buffer	PTR unsigned char  size(2) Largest target is 0

    f...buffer	PTR unsigned char  size(2) Largest target is 0

    I2c_Receive_Overflow_Interrupt_Hundeler	PTR FTN()void  size(2) Largest target is 1
		 -> NULL(), NULL(NULL[0]), 

    MSSP_I2C_Interrupt_Configuration@i2c_obj.I2c_Receive_Overflow	PTR FTN()void  size(2) Largest target is 0
		 -> NULL(NULL[0]), 

    MSSP_I2C_Interrupt_Configuration@i2c_obj.I2C_Defualt_Interrupt_Hundeler	PTR FTN()void  size(2) Largest target is 1
		 -> MSSP_I2C_Defualt_Interrupt_Hundeler(), 

    MSSP_I2C_Interrupt_Configuration@i2c_obj.I2c_Write_Collision	PTR FTN()void  size(2) Largest target is 0
		 -> NULL(NULL[0]), 

    MSSP_I2C_Interrupt_Configuration@i2c_obj	PTR const struct . size(2) Largest target is 15
		 -> i2c_obj(BANK0[15]), 

    MSSP_I2C_Slave_CFG@i2c_obj.I2c_Receive_Overflow	PTR FTN()void  size(2) Largest target is 0
		 -> NULL(NULL[0]), 

    MSSP_I2C_Slave_CFG@i2c_obj.I2C_Defualt_Interrupt_Hundeler	PTR FTN()void  size(2) Largest target is 1
		 -> MSSP_I2C_Defualt_Interrupt_Hundeler(), 

    MSSP_I2C_Slave_CFG@i2c_obj.I2c_Write_Collision	PTR FTN()void  size(2) Largest target is 0
		 -> NULL(NULL[0]), 

    MSSP_I2C_Slave_CFG@i2c_obj	PTR const struct . size(2) Largest target is 15
		 -> i2c_obj(BANK0[15]), 

    MSSP_I2C_Clock_CFG@i2c_obj.I2c_Receive_Overflow	PTR FTN()void  size(2) Largest target is 0
		 -> NULL(NULL[0]), 

    MSSP_I2C_Clock_CFG@i2c_obj.I2C_Defualt_Interrupt_Hundeler	PTR FTN()void  size(2) Largest target is 1
		 -> MSSP_I2C_Defualt_Interrupt_Hundeler(), 

    MSSP_I2C_Clock_CFG@i2c_obj.I2c_Write_Collision	PTR FTN()void  size(2) Largest target is 0
		 -> NULL(NULL[0]), 

    MSSP_I2C_Clock_CFG@i2c_obj	PTR const struct . size(2) Largest target is 15
		 -> i2c_obj(BANK0[15]), 

    I2c_Write_Collision_Interrupt_Hundeler	PTR FTN()void  size(2) Largest target is 1
		 -> NULL(), NULL(NULL[0]), 

    I2C_Defualt_Interrupt_Hundeler	PTR FTN()void  size(2) Largest target is 1
		 -> MSSP_I2C_Defualt_Interrupt_Hundeler(), NULL(), 

    MSSP_I2C_Init@i2c_obj.I2c_Receive_Overflow	PTR FTN()void  size(2) Largest target is 0
		 -> NULL(NULL[0]), 

    MSSP_I2C_Init@i2c_obj.I2C_Defualt_Interrupt_Hundeler	PTR FTN()void  size(2) Largest target is 1
		 -> MSSP_I2C_Defualt_Interrupt_Hundeler(), 

    MSSP_I2C_Init@i2c_obj.I2c_Write_Collision	PTR FTN()void  size(2) Largest target is 0
		 -> NULL(NULL[0]), 

    MSSP_I2C_Init@i2c_obj	PTR const struct . size(2) Largest target is 15
		 -> i2c_obj(BANK0[15]), 

    S3717$I2c_Receive_Overflow	PTR FTN()void  size(2) Largest target is 0
		 -> NULL(NULL[0]), 

    i2c_obj.I2c_Receive_Overflow	PTR FTN()void  size(2) Largest target is 0
		 -> NULL(NULL[0]), 

    S3717$I2C_Defualt_Interrupt_Hundeler	PTR FTN()void  size(2) Largest target is 1
		 -> MSSP_I2C_Defualt_Interrupt_Hundeler(), 

    i2c_obj.I2C_Defualt_Interrupt_Hundeler	PTR FTN()void  size(2) Largest target is 1
		 -> MSSP_I2C_Defualt_Interrupt_Hundeler(), 

    S3717$I2c_Write_Collision	PTR FTN()void  size(2) Largest target is 0
		 -> NULL(NULL[0]), 

    i2c_obj.I2c_Write_Collision	PTR FTN()void  size(2) Largest target is 0
		 -> NULL(NULL[0]), 

    EUSART_Overrun_error_Interrupt_Hundeler	PTR FTN()void  size(2) Largest target is 1
		 -> NULL(), 

    EUSART_Framig_error_Interrupt_Hundeler	PTR FTN()void  size(2) Largest target is 1
		 -> NULL(), 

    EUSART_RX_Interrupt_Hundeler	PTR FTN()void  size(2) Largest target is 1
		 -> NULL(), 

    EUSART_ASYNC_RX_Init@eusar.EUSART_Overrun_Error_HUNDELER	PTR FTN()void  size(2) Largest target is 0

    EUSART_ASYNC_RX_Init@eusar.EUSART_Framming_Error_HUNDELER	PTR FTN()void  size(2) Largest target is 0

    EUSART_ASYNC_RX_Init@eusar.EUSART_RX_DEFUALTINTERRUPT_HUNDELER	PTR FTN()void  size(2) Largest target is 0

    EUSART_ASYNC_RX_Init@eusar.EUSART_TX_DEFUALTINTERRUPT_HUNDELER	PTR FTN()void  size(2) Largest target is 0

    EUSART_TX_Interrupt_Hundeler	PTR FTN()void  size(2) Largest target is 1
		 -> NULL(), 

    EUSART_ASYNC_TX_Init@eusar.EUSART_Overrun_Error_HUNDELER	PTR FTN()void  size(2) Largest target is 0

    EUSART_ASYNC_TX_Init@eusar.EUSART_Framming_Error_HUNDELER	PTR FTN()void  size(2) Largest target is 0

    EUSART_ASYNC_TX_Init@eusar.EUSART_RX_DEFUALTINTERRUPT_HUNDELER	PTR FTN()void  size(2) Largest target is 0

    EUSART_ASYNC_TX_Init@eusar.EUSART_TX_DEFUALTINTERRUPT_HUNDELER	PTR FTN()void  size(2) Largest target is 0

    S3269$EUSART_Overrun_Error_HUNDELER	PTR FTN()void  size(2) Largest target is 0

    EUSART_BaudRate_Calculations@eusar.EUSART_Overrun_Error_HUNDELER	PTR FTN()void  size(2) Largest target is 0

    S3269$EUSART_Framming_Error_HUNDELER	PTR FTN()void  size(2) Largest target is 0

    EUSART_BaudRate_Calculations@eusar.EUSART_Framming_Error_HUNDELER	PTR FTN()void  size(2) Largest target is 0

    S3269$EUSART_RX_DEFUALTINTERRUPT_HUNDELER	PTR FTN()void  size(2) Largest target is 0

    EUSART_BaudRate_Calculations@eusar.EUSART_RX_DEFUALTINTERRUPT_HUNDELER	PTR FTN()void  size(2) Largest target is 0

    S3269$EUSART_TX_DEFUALTINTERRUPT_HUNDELER	PTR FTN()void  size(2) Largest target is 0

    EUSART_BaudRate_Calculations@eusar.EUSART_TX_DEFUALTINTERRUPT_HUNDELER	PTR FTN()void  size(2) Largest target is 0

    Timer3_Mode_Select@timer3.TMR3_Interrupt_Hundeler	PTR FTN()void  size(2) Largest target is 0

    TMR3_Interrupt_Hundeler	PTR FTN()void  size(2) Largest target is 1
		 -> NULL(), 

    S3075$TMR3_Interrupt_Hundeler	PTR FTN()void  size(2) Largest target is 0

    Timer3_Init@timer3.TMR3_Interrupt_Hundeler	PTR FTN()void  size(2) Largest target is 0

    TMR2_Interrupt_Hundeler	PTR FTN()void  size(2) Largest target is 1
		 -> NULL(), 

    S2944$TMR2_Interrupt_Hundeler	PTR FTN()void  size(2) Largest target is 0

    Timer2_Init@timer2.TMR2_Interrupt_Hundeler	PTR FTN()void  size(2) Largest target is 0

    Timer1_Mode_Select@timer1.TMR1_Interrupt_Hundeler	PTR FTN()void  size(2) Largest target is 0

    TMR1_Interrupt_Hundeler	PTR FTN()void  size(2) Largest target is 1
		 -> NULL(), 

    S2755$TMR1_Interrupt_Hundeler	PTR FTN()void  size(2) Largest target is 0

    Timer1_Init@timer1.TMR1_Interrupt_Hundeler	PTR FTN()void  size(2) Largest target is 0

    Timer0_Register_Size@timer1.TMR0_Interrupt_Hundeler	PTR FTN()void  size(2) Largest target is 0

    Timer0_Mode_Select@timer1.TMR0_Interrupt_Hundeler	PTR FTN()void  size(2) Largest target is 0

    Timer0_Prescaler_Config@timer1.TMR0_Interrupt_Hundeler	PTR FTN()void  size(2) Largest target is 0

    TMR0_Interrupt_Hundeler	PTR FTN()void  size(2) Largest target is 1
		 -> NULL(), 

    S2585$TMR0_Interrupt_Hundeler	PTR FTN()void  size(2) Largest target is 0

    Timer0_Init@timer1.TMR0_Interrupt_Hundeler	PTR FTN()void  size(2) Largest target is 0

    Interrupt_INTx_SetHandular@int_obj.Ext_Intterrupt	PTR FTN()void  size(2) Largest target is 0

    INT2_Interrupt_Handular	PTR FTN()void  size(2) Largest target is 1
		 -> NULL(), 

    INT1_Interrupt_Handular	PTR FTN()void  size(2) Largest target is 1
		 -> NULL(), 

    INT0_Interrupt_Handular	PTR FTN()void  size(2) Largest target is 1
		 -> NULL(), 

    Interrupt_INTx_Clear_Flag@int_obj.Ext_Intterrupt	PTR FTN()void  size(2) Largest target is 0

    Interrupt_INTx_Pin_Init@int_obj.Ext_Intterrupt	PTR FTN()void  size(2) Largest target is 0

    Interrupt_INTx_Edge_Init@int_obj.Ext_Intterrupt	PTR FTN()void  size(2) Largest target is 0

    Interrupt_INTx_Disable@int_obj.Ext_Intterrupt	PTR FTN()void  size(2) Largest target is 0

    S1973$Ext_Intterrupt	PTR FTN()void  size(2) Largest target is 0

    Interrupt_INTx_Enable@int_obj.Ext_Intterrupt	PTR FTN()void  size(2) Largest target is 0

    RB7_Interrupt_Handular_LOW	PTR FTN()void  size(2) Largest target is 1
		 -> NULL(), 

    RB7_Interrupt_Handular_HIGH	PTR FTN()void  size(2) Largest target is 1
		 -> NULL(), 

    RB6_Interrupt_Handular_LOW	PTR FTN()void  size(2) Largest target is 1
		 -> NULL(), 

    RB6_Interrupt_Handular_HIGH	PTR FTN()void  size(2) Largest target is 1
		 -> NULL(), 

    RB5_Interrupt_Handular_LOW	PTR FTN()void  size(2) Largest target is 1
		 -> NULL(), 

    RB5_Interrupt_Handular_HIGH	PTR FTN()void  size(2) Largest target is 1
		 -> NULL(), 

    RB4_Interrupt_Handular_LOW	PTR FTN()void  size(2) Largest target is 1
		 -> NULL(), 

    RB4_Interrupt_Handular_HIGH	PTR FTN()void  size(2) Largest target is 1
		 -> NULL(), 

    S2011$Ext_Intterrupt_LOW	PTR FTN()void  size(2) Largest target is 0

    Interrupt_RBx_Initialization@int_obj.Ext_Intterrupt_LOW	PTR FTN()void  size(2) Largest target is 0

    S2011$Ext_Intterrupt_HIGH	PTR FTN()void  size(2) Largest target is 0

    Interrupt_RBx_Initialization@int_obj.Ext_Intterrupt_HIGH	PTR FTN()void  size(2) Largest target is 0

    gpio_pin_intialize@pin_config	PTR const struct . size(2) Largest target is 6
		 -> lcd_1.lcd_data(BANK0[4]), lcd_1(BANK0[6]), Relay_Initialize@pin_obj(COMRAM[1]), led_initialize@pin_obj(COMRAM[1]), 

    gpio_pin_toggle_logic@pin_config	PTR const struct . size(2) Largest target is 1
		 -> led_toggle@pin_obj(COMRAM[1]), 

    gpio_pin_write_logic@pin_config	PTR const struct . size(2) Largest target is 6
		 -> lcd_4_bit_send_command@lcd.lcd_data(COMRAM[8]), lcd_4_bit_send_char_data@lcd.lcd_data(COMRAM[8]), lcd_4_bit_send_data_position@lcd.lcd_data(COMRAM[8]), lcd_4_bit_send_string@lcd.lcd_data(COMRAM[8]), 
		 -> lcd_4_bit_send_string_position@lcd.lcd_data(COMRAM[8]), lcd_1.lcd_data(BANK0[8]), lcd_1.lcd_data(BANK0[4]), lcd_1(BANK0[6]), 
		 -> Relay_Turn_OFF@pin_obj(COMRAM[1]), Relay_Turn_ON@pin_obj(COMRAM[1]), Relay_Initialize@pin_obj(COMRAM[1]), led_turn_off@pin_obj(COMRAM[1]), 
		 -> led_turn_on@pin_obj(COMRAM[1]), led_initialize@pin_obj(COMRAM[1]), lcd_8_bit_send_command@lcd(COMRAM[2]), lcd_4_bit_send_string_position@lcd(COMRAM[2]), 
		 -> lcd_4_bit_send_string@lcd(COMRAM[2]), lcd_4_bit_send_data_position@lcd(COMRAM[2]), lcd_4_bit_send_char_data@lcd(COMRAM[2]), lcd_4_bit_send_command@lcd(COMRAM[2]), 

    gpio_pin_direction_intialize@pin_config	PTR const struct . size(2) Largest target is 6
		 -> lcd_1.lcd_data(BANK0[4]), lcd_1(BANK0[6]), Relay_Initialize@pin_obj(COMRAM[1]), led_initialize@pin_obj(COMRAM[1]), 

    port_registers	PTR volatile unsigned char [5] size(2) Largest target is 1
		 -> PORTE(BITBIGSFRlllll[1]), PORTD(BITBIGSFRlllll[1]), PORTC(BITBIGSFRlllll[1]), PORTB(BITBIGSFRlllll[1]), 
		 -> PORTA(BITBIGSFRlllll[1]), 

    lat_registers	PTR volatile unsigned char [5] size(2) Largest target is 1
		 -> LATE(BITBIGSFRllllh[1]), LATD(BITBIGSFRllllh[1]), LATC(BITBIGSFRllllh[1]), LATB(BITBIGSFRllllh[1]), 
		 -> LATA(BITBIGSFRlllll[1]), 

    tris_registers	PTR volatile unsigned char [5] size(2) Largest target is 1
		 -> TRISD(ABS[1]), TRISC(ABS[1]), TRISB(ABS[1]), TRISE(ABS[1]), 
		 -> TRISA(BITBIGSFRlllll[1]), 

    Set_Capture_Mode@ccp_obj.CCP2_Interrupt_Hundeler	PTR FTN()void  size(2) Largest target is 0

    Set_Capture_Mode@ccp_obj.CCP1_Interrupt_Hundeler	PTR FTN()void  size(2) Largest target is 0

    Set_Compare_Mode@ccp_obj.CCP2_Interrupt_Hundeler	PTR FTN()void  size(2) Largest target is 0

    Set_Compare_Mode@ccp_obj.CCP1_Interrupt_Hundeler	PTR FTN()void  size(2) Largest target is 0

    ccp_capture_mode_timer_select@ccp_obj.CCP2_Interrupt_Hundeler	PTR FTN()void  size(2) Largest target is 0

    ccp_capture_mode_timer_select@ccp_obj.CCP1_Interrupt_Hundeler	PTR FTN()void  size(2) Largest target is 0

    CCP_PWM_Stop@ccp_obj.CCP2_Interrupt_Hundeler	PTR FTN()void  size(2) Largest target is 0

    CCP_PWM_Stop@ccp_obj.CCP1_Interrupt_Hundeler	PTR FTN()void  size(2) Largest target is 0

    CCP_PWM_Start@ccp_obj.CCP2_Interrupt_Hundeler	PTR FTN()void  size(2) Largest target is 0

    CCP_PWM_Start@ccp_obj.CCP1_Interrupt_Hundeler	PTR FTN()void  size(2) Largest target is 0

    CCP_PWM_Set_Duty@ccp_obj.CCP2_Interrupt_Hundeler	PTR FTN()void  size(2) Largest target is 0

    CCP_PWM_Set_Duty@ccp_obj.CCP1_Interrupt_Hundeler	PTR FTN()void  size(2) Largest target is 0

    CCP_PWM_Deinit@ccp_obj.CCP2_Interrupt_Hundeler	PTR FTN()void  size(2) Largest target is 0

    CCP_PWM_Deinit@ccp_obj.CCP1_Interrupt_Hundeler	PTR FTN()void  size(2) Largest target is 0

    CCP_PWM_Init@ccp_obj.CCP2_Interrupt_Hundeler	PTR FTN()void  size(2) Largest target is 0

    CCP_PWM_Init@ccp_obj.CCP1_Interrupt_Hundeler	PTR FTN()void  size(2) Largest target is 0

    CCP1_Compare_Mode_Set_Value@ccp_obj.CCP2_Interrupt_Hundeler	PTR FTN()void  size(2) Largest target is 0

    CCP1_Compare_Mode_Set_Value@ccp_obj.CCP1_Interrupt_Hundeler	PTR FTN()void  size(2) Largest target is 0

    CCP1_COMPARE_Deinit@ccp_obj.CCP2_Interrupt_Hundeler	PTR FTN()void  size(2) Largest target is 0

    CCP1_COMPARE_Deinit@ccp_obj.CCP1_Interrupt_Hundeler	PTR FTN()void  size(2) Largest target is 0

    CCP_COMPARE_Init@ccp_obj.CCP2_Interrupt_Hundeler	PTR FTN()void  size(2) Largest target is 0

    CCP_COMPARE_Init@ccp_obj.CCP1_Interrupt_Hundeler	PTR FTN()void  size(2) Largest target is 0

    CCP1_CAPTURE_Deinit@ccp_obj.CCP2_Interrupt_Hundeler	PTR FTN()void  size(2) Largest target is 0

    CCP1_CAPTURE_Deinit@ccp_obj.CCP1_Interrupt_Hundeler	PTR FTN()void  size(2) Largest target is 0

    CCP2_Interrupt_Hundeler	PTR FTN()void  size(2) Largest target is 1
		 -> NULL(), 

    CCP1_Interrupt_Hundeler	PTR FTN()void  size(2) Largest target is 1
		 -> NULL(), 

    S1143$CCP2_Interrupt_Hundeler	PTR FTN()void  size(2) Largest target is 0

    CCP_CAPTURE_Init@ccp_obj.CCP2_Interrupt_Hundeler	PTR FTN()void  size(2) Largest target is 0

    S1143$CCP1_Interrupt_Hundeler	PTR FTN()void  size(2) Largest target is 0

    CCP_CAPTURE_Init@ccp_obj.CCP1_Interrupt_Hundeler	PTR FTN()void  size(2) Largest target is 0

    select_voltage_reference@_adc_obj.ADC_INTERRUPTHUNDLER	PTR FTN()void  size(2) Largest target is 0

    select_result_format@_adc_obj.ADC_INTERRUPTHUNDLER	PTR FTN()void  size(2) Largest target is 0

    ADC_GetConversion_Result@_adc_obj.ADC_INTERRUPTHUNDLER	PTR FTN()void  size(2) Largest target is 0

    ADC_Interrupt_Handular	PTR FTN()void  size(2) Largest target is 1
		 -> NULL(), 

    S725$ADC_INTERRUPTHUNDLER	PTR FTN()void  size(2) Largest target is 0

    ADC_Init@_adc_obj.ADC_INTERRUPTHUNDLER	PTR FTN()void  size(2) Largest target is 0

    led_toggle@led	PTR const struct . size(2) Largest target is 1
		 -> led1(COMRAM[1]), 

    led_turn_off@led	PTR const struct . size(2) Largest target is 1
		 -> led1(COMRAM[1]), 

    led_initialize@led	PTR const struct . size(2) Largest target is 1
		 -> led1(COMRAM[1]), 

    sp__memset	PTR void  size(2) Largest target is 0

    keypad_btn_values	PTR const unsigned char [4][4] size(3) Largest target is 65535
		 -> ROM(CODE[65535]), 


Critical Paths under _main in COMRAM

    _led_turn_off->_gpio_pin_write_logic
    _led_toggle->_gpio_pin_toggle_logic
    _led_initialize->_gpio_pin_intialize
    _gpio_pin_intialize->_gpio_pin_write_logic
    _MSSP_I2C_Init->_MSSP_I2C_Clock_CFG
    _MSSP_I2C_Clock_CFG->___fltol
    ___fltol->___fladd
    ___fldiv->___xxtofl
    ___fladd->___fldiv

Critical Paths under _Interrupt_Manager in COMRAM

    _Interrupt_Manager->_RB4_ISR
    _Interrupt_Manager->_RB5_ISR
    _Interrupt_Manager->_RB6_ISR
    _Interrupt_Manager->_RB7_ISR

Critical Paths under _main in BANK0

    _I2C_init->_MSSP_I2C_Init

Critical Paths under _Interrupt_Manager in BANK0

    None.

Critical Paths under _main in BANK1

    None.

Critical Paths under _Interrupt_Manager in BANK1

    None.

Critical Paths under _main in BANK2

    None.

Critical Paths under _Interrupt_Manager in BANK2

    None.

Critical Paths under _main in BANK3

    None.

Critical Paths under _Interrupt_Manager in BANK3

    None.

Critical Paths under _main in BANK4

    None.

Critical Paths under _Interrupt_Manager in BANK4

    None.

Critical Paths under _main in BANK5

    None.

Critical Paths under _Interrupt_Manager in BANK5

    None.

Critical Paths under _main in BANK6

    None.

Critical Paths under _Interrupt_Manager in BANK6

    None.

Critical Paths under _main in BANK7

    None.

Critical Paths under _Interrupt_Manager in BANK7

    None.

Critical Paths under _main in BANK8

    None.

Critical Paths under _Interrupt_Manager in BANK8

    None.

Critical Paths under _main in BANK9

    None.

Critical Paths under _Interrupt_Manager in BANK9

    None.

Critical Paths under _main in BANK10

    None.

Critical Paths under _Interrupt_Manager in BANK10

    None.

Critical Paths under _main in BANK11

    None.

Critical Paths under _Interrupt_Manager in BANK11

    None.

Critical Paths under _main in BANK12

    None.

Critical Paths under _Interrupt_Manager in BANK12

    None.

Critical Paths under _main in BANK13

    None.

Critical Paths under _Interrupt_Manager in BANK13

    None.

Critical Paths under _main in BANK14

    None.

Critical Paths under _Interrupt_Manager in BANK14

    None.

Critical Paths under _main in BANK15

    None.

Critical Paths under _Interrupt_Manager in BANK15

    None.

Call Graph Tables:

 ---------------------------------------------------------------------------------
 (Depth) Function   	        Calls       Base Space   Used Autos Params    Refs
 ---------------------------------------------------------------------------------
 (0) _main                                                 1     1      0   24697
                           _I2C_init
                     _led_initialize
                         _led_toggle
                       _led_turn_off
 ---------------------------------------------------------------------------------
 (1) _led_turn_off                                         5     3      2    5133
                                             13 COMRAM     5     3      2
               _gpio_pin_write_logic
 ---------------------------------------------------------------------------------
 (1) _led_toggle                                           5     3      2     390
                                             10 COMRAM     5     3      2
              _gpio_pin_toggle_logic
 ---------------------------------------------------------------------------------
 (2) _gpio_pin_toggle_logic                                8     6      2     172
                                              3 COMRAM     7     5      2
 ---------------------------------------------------------------------------------
 (1) _led_initialize                                       5     3      2    7204
                                             17 COMRAM     5     3      2
                 _gpio_pin_intialize
 ---------------------------------------------------------------------------------
 (2) _gpio_pin_intialize                                   4     2      2    6976
                                             13 COMRAM     4     2      2
       _gpio_pin_direction_intialize
               _gpio_pin_write_logic
 ---------------------------------------------------------------------------------
 (2) _gpio_pin_write_logic                                10     7      3    4913
                                              3 COMRAM    10     7      3
 ---------------------------------------------------------------------------------
 (3) _gpio_pin_direction_intialize                         9     7      2     559
                                              3 COMRAM     9     7      2
 ---------------------------------------------------------------------------------
 (1) _I2C_init                                             1     1      0   11958
                      _MSSP_I2C_Init
 ---------------------------------------------------------------------------------
 (2) _MSSP_I2C_Init                                        3     1      2   11952
                                              0 BANK0      3     1      2
                 _MSSP_I2C_Clock_CFG
   _MSSP_I2C_Interrupt_Configuration
             _MSSP_I2C_Mode_GPIO_CFG
                 _MSSP_I2C_Slave_CFG
 ---------------------------------------------------------------------------------
 (3) _MSSP_I2C_Slave_CFG                                   3     1      2     121
                                              3 COMRAM     3     1      2
 ---------------------------------------------------------------------------------
 (3) _MSSP_I2C_Mode_GPIO_CFG                               0     0      0       0
 ---------------------------------------------------------------------------------
 (3) _MSSP_I2C_Interrupt_Configuration                     2     0      2     183
                                              3 COMRAM     2     0      2
 ---------------------------------------------------------------------------------
 (3) _MSSP_I2C_Clock_CFG                                   3     1      2   11115
                                             68 COMRAM     3     1      2
                            ___fladd
                            ___fldiv
                            ___fltol
                           ___xxtofl
 ---------------------------------------------------------------------------------
 (4) ___xxtofl                                            14    10      4    1416
                                              3 COMRAM    14    10      4
 ---------------------------------------------------------------------------------
 (4) ___fltol                                             10     6      4     702
                                             58 COMRAM    10     6      4
                            ___fladd (ARG)
                            ___fldiv (ARG)
                           ___xxtofl (ARG)
 ---------------------------------------------------------------------------------
 (4) ___fldiv                                             25    17      8    4353
                                             17 COMRAM    25    17      8
                           ___xxtofl (ARG)
 ---------------------------------------------------------------------------------
 (4) ___fladd                                             16     8      8    4492
                                             42 COMRAM    16     8      8
                            ___fldiv (ARG)
                           ___xxtofl (ARG)
 ---------------------------------------------------------------------------------
 Estimated maximum stack depth 4
 ---------------------------------------------------------------------------------
 (Depth) Function   	        Calls       Base Space   Used Autos Params    Refs
 ---------------------------------------------------------------------------------
 (5) _Interrupt_Manager                                    2     2      0     120
                                              1 COMRAM     2     2      0
                            _ADC_ISR
                           _CCP1_ISR
                           _CCP2_ISR
                      _EUSART_RX_ISR
                      _EUSART_TX_ISR
                           _INT0_ISR
                           _INT1_ISR
                           _INT2_ISR
                    _MSSP_I2C_BC_ISR
                       _MSSP_I2C_ISR
                            _RB4_ISR
                            _RB5_ISR
                            _RB6_ISR
                            _RB7_ISR
                         _TIMER0_ISR
                         _TIMER1_ISR
                         _TIMER2_ISR
                         _TIMER3_ISR
 ---------------------------------------------------------------------------------
 (6) _TIMER3_ISR                                           0     0      0       0
 ---------------------------------------------------------------------------------
 (6) _TIMER2_ISR                                           0     0      0       0
 ---------------------------------------------------------------------------------
 (6) _TIMER1_ISR                                           0     0      0       0
 ---------------------------------------------------------------------------------
 (6) _TIMER0_ISR                                           0     0      0       0
 ---------------------------------------------------------------------------------
 (6) _RB7_ISR                                              1     1      0      30
                                              0 COMRAM     1     1      0
 ---------------------------------------------------------------------------------
 (6) _RB6_ISR                                              1     1      0      30
                                              0 COMRAM     1     1      0
 ---------------------------------------------------------------------------------
 (6) _RB5_ISR                                              1     1      0      30
                                              0 COMRAM     1     1      0
 ---------------------------------------------------------------------------------
 (6) _RB4_ISR                                              1     1      0      30
                                              0 COMRAM     1     1      0
 ---------------------------------------------------------------------------------
 (6) _MSSP_I2C_ISR                                         0     0      0       0
                                NULL *
_MSSP_I2C_Defualt_Interrupt_Hundeler *
 ---------------------------------------------------------------------------------
 (7) _MSSP_I2C_Defualt_Interrupt_Hundeler                  1     1      0       0
 ---------------------------------------------------------------------------------
 (7) NULL(Fake)                                            0     0      0       0
 ---------------------------------------------------------------------------------
 (6) _MSSP_I2C_BC_ISR                                      0     0      0       0
 ---------------------------------------------------------------------------------
 (6) _INT2_ISR                                             0     0      0       0
 ---------------------------------------------------------------------------------
 (6) _INT1_ISR                                             0     0      0       0
 ---------------------------------------------------------------------------------
 (6) _INT0_ISR                                             0     0      0       0
 ---------------------------------------------------------------------------------
 (6) _EUSART_TX_ISR                                        0     0      0       0
 ---------------------------------------------------------------------------------
 (6) _EUSART_RX_ISR                                        0     0      0       0
 ---------------------------------------------------------------------------------
 (6) _CCP2_ISR                                             0     0      0       0
 ---------------------------------------------------------------------------------
 (6) _CCP1_ISR                                             0     0      0       0
 ---------------------------------------------------------------------------------
 (6) _ADC_ISR                                              0     0      0       0
 ---------------------------------------------------------------------------------
 Estimated maximum stack depth 7
 ---------------------------------------------------------------------------------

 Call Graph Graphs:

 _main (ROOT)
   _I2C_init
     _MSSP_I2C_Init
       _MSSP_I2C_Clock_CFG
         ___fladd
           ___fldiv (ARG)
             ___xxtofl (ARG)
           ___xxtofl (ARG)
         ___fldiv
         ___fltol
           ___fladd (ARG)
           ___fldiv (ARG)
           ___xxtofl (ARG)
         ___xxtofl
       _MSSP_I2C_Interrupt_Configuration
       _MSSP_I2C_Mode_GPIO_CFG
       _MSSP_I2C_Slave_CFG
   _led_initialize
     _gpio_pin_intialize
       _gpio_pin_direction_intialize
       _gpio_pin_write_logic
   _led_toggle
     _gpio_pin_toggle_logic
   _led_turn_off
     _gpio_pin_write_logic

 _Interrupt_Manager (ROOT)
   _ADC_ISR
   _CCP1_ISR
   _CCP2_ISR
   _EUSART_RX_ISR
   _EUSART_TX_ISR
   _INT0_ISR
   _INT1_ISR
   _INT2_ISR
   _MSSP_I2C_BC_ISR
   _MSSP_I2C_ISR
     NULL(Fake) *
     _MSSP_I2C_Defualt_Interrupt_Hundeler *
   _RB4_ISR
   _RB5_ISR
   _RB6_ISR
   _RB7_ISR
   _TIMER0_ISR
   _TIMER1_ISR
   _TIMER2_ISR
   _TIMER3_ISR

 Address spaces:
Name               Size   Autos  Total    Cost      Usage
BIGRAM             F7F      0       0      47        0.0%
EEDATA             400      0       0       0        0.0%
BITBANK14          100      0       0      33        0.0%
BANK14             100      0       0      34        0.0%
BITBANK13          100      0       0      31        0.0%
BANK13             100      0       0      32        0.0%
BITBANK12          100      0       0      29        0.0%
BANK12             100      0       0      30        0.0%
BITBANK11          100      0       0      27        0.0%
BANK11             100      0       0      28        0.0%
BITBANK10          100      0       0      25        0.0%
BANK10             100      0       0      26        0.0%
BITBANK9           100      0       0      23        0.0%
BANK9              100      0       0      24        0.0%
BITBANK8           100      0       0      21        0.0%
BANK8              100      0       0      22        0.0%
BITBANK7           100      0       0      18        0.0%
BANK7              100      0       0      19        0.0%
BITBANK6           100      0       0      16        0.0%
BANK6              100      0       0      17        0.0%
BITBANK5           100      0       0      14        0.0%
BANK5              100      0       0      15        0.0%
BITBANK4           100      0       0      12        0.0%
BANK4              100      0       0      13        0.0%
BITBANK3           100      0       0      10        0.0%
BANK3              100      0       0      11        0.0%
BITBANK2           100      0       0       8        0.0%
BANK2              100      0       0       9        0.0%
BITBANK1           100      0       0       6        0.0%
BANK1              100      0      30       7       18.8%
BITBANK15           80      0       0      35        0.0%
BANK15              80      0       0      36        0.0%
BITBANK0            80      0       0       4        0.0%
BANK0               80      3      60       5       75.0%
BITCOMRAM           7E      0       0       0        0.0%
COMRAM              7E     47      7B       1       97.6%
BITBIGSFRhlhhlh     18      0       0      38        0.0%
BITBIGSFRhh          D      0       0      37        0.0%
BITBIGSFRlllhh       6      0       0      44        0.0%
BITBIGSFRhlhhll      5      0       0      39        0.0%
BITBIGSFRllhlhl      4      0       0      41        0.0%
BITBIGSFRllllh       4      0       0      45        0.0%
BITBIGSFRllhlhl      4      0       0      42        0.0%
BITBIGSFRlllll       4      0       0      46        0.0%
BITBIGSFRllhlhl      1      0       0      40        0.0%
BITBIGSFRllhll       1      0       0      43        0.0%
BIGSFR               0      0       0     200        0.0%
BITSFR               0      0       0     200        0.0%
SFR                  0      0       0     200        0.0%
STACK                0      0       0       2        0.0%
NULL                 0      0       0       0        0.0%
ABS                  0      0     10B      20        0.0%
DATA                 0      0     10B       3        0.0%
CODE                 0      0       0       0        0.0%


Microchip Technology PIC18 Macro Assembler V2.41 build 20230208172133 
Symbol Table                                                                                   Wed Dec 13 12:52:45 2023

                 __end_of_MSSP_I2C_Slave_CFG 2838                                 ___fldiv@aexp 002A  
                               ___fldiv@bexp 0029                                 ___fldiv@sign 0022  
                                _SSPSTATbits 0FC7                          ??_Interrupt_Manager 0002  
                    _TMR2_Interrupt_Hundeler 009C                                          l253 260C  
                                        l270 2534                                          l263 24B4  
                                        l249 25B0                                          l274 2590  
                                        l267 2514                                          l745 20A4  
                                        l764 21E0                                          l785 2678  
                                        l778 2412                                          _PR2 0FCB  
                            __end_of_ADC_ISR 28F8                          led_initialize@F3048 0076  
                                        prod 0FF3                                          tosl 0FFD  
                                        wreg 0FE8                     ??_MSSP_I2C_Mode_GPIO_CFG 0004  
                            __end_of_RB4_ISR 28A0                              __end_of_RB5_ISR 2886  
                            __end_of_RB6_ISR 286C                              __end_of_RB7_ISR 2852  
                               ___fltol@exp1 0044                                         l2214 1310  
                                       l2206 14C6                                         l2223 13E0  
                                       l2224 13CE                                         l2251 1C56  
                                       l2331 1D46                                         l2324 1CAE  
                                       l2253 1AB6                                         l2262 1AFC  
                                       l1518 278E                                         l2327 1E0A  
                                       l2264 1B74                                         l2256 1A7A  
                                       l2265 1B62                                         l2338 1DA2  
                                       l1571 1E28                                         l1660 2380  
                                       l2197 11F6                                         l2198 11E4  
                                       l2199 11AA                                         l1663 2836  
                                       l1657 28D0                                         l1577 1EAA  
                                       l1666 271A                                         l1589 1F60  
                                       l6201 25A8                                         l6203 25B4  
                                       l6211 260A                                         l6205 25EA  
                                       l6221 24B8                                         l1966 22E6  
                                       l6207 25EC                                         l6223 24EE  
                                       l6215 2496                                         l8001 2780  
                                       l6209 25FE                                         l6241 256E  
                                       l6233 2516                                         l6225 24F0  
                                       l6217 249A                                         l8003 2782  
                                       l6243 2570                                         l6235 251A  
                                       l6227 2502                                         l6219 24AC  
                                       l6245 2582                                         l6237 252C  
                                       l6229 2512                                         l6239 2538  
                                       l6247 258E                                         l8121 268A  
                                       l8123 269C                                         l8115 267A  
                                       l7501 105E                                         l5901 20A2  
                                       l6197 2592                                         l8125 26AC  
                                       l8117 267A                                         l7511 108E  
                                       l7503 106E                                         l6199 2596  
                                       l8127 26BE                                         l8119 267E  
                                       l7601 1264                                         l7521 10CE  
                                       l7513 109C                                         l7505 1074  
                                       l7611 12AA                                         l7603 1272  
                                       l7531 1108                                         l7523 10D0  
                                       l7515 109E                                         l7507 1086  
                                       l8171 208C                                         l7621 1326  
                                       l7613 12DE                                         l7605 1274  
                                       l7541 111C                                         l7533 110C  
                                       l7517 10AE                                         l7525 10D8  
                                       l7509 1088                                         l7701 190C  
                                       l5861 20BC                                         l7631 1362  
                                       l7623 1336                                         l7615 12E0  
                                       l7607 127E                                         l7551 1130  
                                       l7543 1120                                         l7535 1110  
                                       l7527 10E8                                         l7519 10BE  
                                       l7711 193E                                         l7703 1914  
                                       l5863 20CC                                         l5951 260E  
                                       l7641 138E                                         l7633 1364  
                                       l7617 12F0                                         l7609 1284  
                                       l7561 1144                                         l7553 1134  
                                       l7545 1124                                         l7537 1114  
                                       l7529 10FA                                         l7801 1BCC  
                                       l7721 1972                                         l7713 1940  
                                       l7705 1924                                         l8169 21C8  
                                       l5865 20EE                                         l5857 20A6  
                                       l5953 2620                                         l7651 13C6  
                                       l7635 1372                                         l7627 134A  
                                       l7643 1390                                         l7619 1300  
                                       l7571 11A2                                         l7555 1138  
                                       l7547 1128                                         l7539 1118  
                                       l7563 1148                                         l7491 1024  
                                       l7811 1C36                                         l7803 1BE6  
                                       l7731 19B8                                         l7715 1950  
                                       l7723 197A                                         l7707 192A  
                                       l5891 1F9A                                         l5867 20F6  
                                       l5875 21B4                                         l5859 20AA  
                                       l5955 2642                                         l7661 1444  
                                       l7637 137A                                         l7629 1354  
                                       l7645 139E                                         l7581 11D8  
                                       l7573 11B8                                         l7565 114C  
                                       l7557 113C                                         l7549 112C  
                                       l7493 1034                                         l7485 1008  
                                       l7813 1C44                                         l7805 1BFC  
                                       l7741 19E0                                         l7733 19BC  
                                       l7725 198A                                         l7717 1960  
                                       l7709 1930                                         l7901 1DB2  
                                       l5893 1FA2                                         l5885 1F62  
                                       l5869 2158                                         l5877 21DE  
                                       l5957 264A                                         l5949 260E  
                                       l7671 148A                                         l7655 13F0  
                                       l7663 1446                                         l7647 13A2  
                                       l7639 137E                                         l7591 1228  
                                       l7583 11E2                                         l7575 11C4  
                                       l7567 1176                                         l7559 1140  
                                       l7495 1044                                         l7487 1014  
                                       l7815 1C4A                                         l7807 1C16  
                                       l7751 1A2E                                         l7727 19A0  
                                       l7719 1970                                         l7831 220C  
                                       l7911 1DFA                                         l7903 1DB6  
                                       l5895 2004                                         l5887 1F66  
                                       l5959 2676                                         l5991 2394  
                                       l7681 14B4                                         l7673 1498  
                                       l7665 1456                                         l7657 13FC  
                                       l7649 13B0                                         l7593 1238  
                                       l7585 1204                                         l7577 11C8  
                                       l7569 1192                                         l7497 1054  
                                       l7489 1022                                         l7817 1C4C  
                                       l7809 1C32                                         l7761 1A78  
                                       l7753 1A3E                                         l7745 19F4  
                                       l7729 19B0                                         l7737 19D0  
                                       l7841 225A                                         l7833 2236  
                                       l7825 21E2                                         l7905 1DDA  
                                       l7921 28CC                                         l5889 1F78  
                                       l5993 23B6                                         l7683 14B6  
                                       l7675 149E                                         l7667 1466  
                                       l7659 140A                                         l7595 1246  
                                       l7587 1214                                         l7579 11D6  
                                       l7499 1056                                         l7771 1AC6  
                                       l7763 1A84                                         l7755 1A46  
                                       l7747 1A0E                                         l7739 19E0  
                                       l7691 18D8                                         l7851 2286  
                                       l7835 2238                                         l7827 21F8  
                                       l7907 1DEA                                         l7915 22E8  
                                       l7923 26D2                                         l7931 1E0C  
                                       l5899 2060                                         l5995 23BA  
                                       l5987 2382                                         l7677 14A0  
                                       l7669 1486                                         l7597 1254  
                                       l7773 1ADC                                         l7781 1B0C  
                                       l7765 1AA2                                         l7757 1A56  
                                       l7749 1A1E                                         l7693 18DA  
                                       l7861 22B6                                         l7837 2248  
                                       l7909 1DF8                                         l7917 2302  
                                       l7925 26DA                                         l7941 1E54  
                                       l7933 1E0C                                         l5989 2382  
                                       l7679 14A6                                         l7599 1260  
                                       l7783 1B1A                                         l7775 1AE2  
                                       l7767 1AA4                                         l7759 1A6A  
                                       l7695 18EA                                         l7687 18BE  
                                       l7863 22C6                                         l7847 2272  
                                       l7839 224C                                         l7871 1C6A  
                                       l7927 2716                                         l7919 281C  
                                       l7951 1EB0                                         l7943 1E6E  
                                       l7935 1E20                                         l7793 1B84  
                                       l7785 1B1E                                         l7777 1AEC  
                                       l7769 1AB4                                         l7697 18FA  
                                       l7689 18CA                                         l7865 22D6  
                                       l7857 229A                                         l7849 227C  
                                       l7881 1CE8                                         l7873 1C78  
                                       l7929 2718                                         l7961 1EF2  
                                       l7953 1EC0                                         l7945 1E88  
                                       l7937 1E2A                                         l7795 1B90  
                                       l7787 1B2C                                         l7779 1AFA  
                                       l7699 190A                                         l7859 22A6  
                                       l7891 1D3C                                         l7883 1CF0  
                                       l7875 1CBE                                         l7971 1F48  
                                       l7963 1F0C                                         l7947 1E8E  
                                       l7955 1ECC                                         l7939 1E44  
                                       l7797 1B9E                                         l7789 1B5A  
                                       l7893 1D78                                         l7885 1CFC  
                                       l7877 1CD4                                         l7869 1C5A  
                                       l7973 1F4A                                         l7965 1F0E  
                                       l7957 1ED0                                         l7949 1EA8  
                                       l7799 1BC8                                         l7895 1D84  
                                       l7887 1D2E                                         l7975 1F56  
                                       l7967 1F28                                         l7959 1EEC  
                                       l7991 2772                                         l7983 2758  
                                       l7897 1D92                                         l7889 1D30  
                                       l7977 1F58                                         l7969 1F2E  
                                       l7993 2774                                         l7985 2758  
                                       l7899 1DB0                                         l7979 1F5E  
                                       l7995 2778                                         l7987 2762  
                                       l7997 277A                                         l7989 276A  
                                       l7999 277C                                         STR_1 1001  
                                       STR_2 1004                                         _LATA 0F89  
                                       _LATB 0F8A                                         _LATC 0F8B  
                                       _LATD 0F8C                                         _LATE 0F8D  
                                       u5100 1F9A                                         u5101 1F96  
                                       u5040 20BC                                         u5041 20B8  
                                       u5130 2078                                         u5114 1FC2  
                                       u5050 20CC                                         u5131 2072  
                                       u5115 1FBE                                         u5051 20C8  
                                       u5140 207A                                         u5124 2024  
                                       u5060 20EE                                         u5204 23DA  
                                       u5125 2020                                         u5061 20EA  
                                       u5205 23D6                                         u5150 2620  
                                       u5151 261C                                         u5160 2642  
                                       u5161 263E                                         u5090 1F78  
                                       u5074 2116                                         u5091 1F74  
                                       u5075 2112                                         u5084 2178  
                                       u5180 2394                                         u5085 2174  
                                       u5181 2390                                         u5430 25A8  
                                       u5190 23B6                                         u5431 25A4  
                                       u5191 23B2                                         u8000 1DB0  
                                       u8001 1DAC                                         u8010 1DEA  
                                       u5450 24AC                                         u8011 1DE6  
                                       u5451 24A8                                         u7300 10BE  
                                       u8020 1DF8                                         u8100 1F28  
                                       u7301 10BA                                         u8021 1DF4  
                                       u8101 1F24                                         u5445 25FC  
                                       u7310 10FA                                         u8110 1F48  
                                       u8030 1E20                                         u5470 252C  
                                       u7311 10F6                                         u8111 1F44  
                                       u8031 1E1C                                         u5447 25FE  
                                       u5471 2528                                         u7400 1214  
                                       u7320 1108                                         u7240 1022  
                                       u8040 1E44                                         u7401 1210  
                                       u7321 1104                                         u7241 101E  
                                       u8041 1E40                                         u5465 2500  
                                       u7410 1246                                         u7330 1176  
                                       u7250 1034                                         u8050 1E6E  
                                       u7411 1242                                         u7331 1172  
                                       u7251 1030                                         u8051 1E6A  
                                       u5467 2502                                         u7500 138E  
                                       u7420 1254                                         u7340 118E  
                                       u7260 1044                                         u8060 1E88  
                                       u7501 138A                                         u7421 1250  
                                       u7341 1188                                         u7261 1040  
                                       u8061 1E84                                         u5485 2580  
                                       u7510 139E                                         u7430 1272  
                                       u7350 1190                                         u7270 1086  
                                       u8070 1EA8                                         u7511 139A  
                                       u7431 126E                                         u7271 1082  
                                       u8071 1EA4                                         u5487 2582  
                                       u7600 1486                                         u7520 13B0  
                                       u7440 12AA                                         u7360 11B8  
                                       u7280 109C                                         u8080 1EEC  
                                       u8240 269C                                         u7601 1482  
                                       u7521 13AC                                         u7441 12A6  
                                       u7361 11B4                                         u7281 1098  
                                       u8081 1EE8                                         u8241 2698  
                                       u7610 1498                                         u7530 13C6  
                                       u7450 12F0                                         u7370 11D6  
                                       u7290 10AE                                         u8090 1F0C  
                                       u8250 26BE                                         u7611 1494  
                                       u7531 13C2                                         u7451 12EC  
                                       u7371 11D2                                         u7291 10AA  
                                       u8091 1F08                                         u8251 26BA  
                                       u7620 14B4                                         u7540 13DC  
                                       u7460 1326                                         u7380 11F6  
                                       u7700 19E0                                         u7621 14B0  
                                       u7541 13D8                                         u7461 1322  
                                       u7381 11F2                                         u7701 19DC  
                                       u7550 13F0                                         u7470 1336  
                                       u7390 1204                                         u7710 1A56  
                                       u7630 18D8                                         u7551 13EC  
                                       u7471 1332                                         u7391 1200  
                                       u7711 1A52                                         u7631 18D4  
                                       u7560 140A                                         u7480 1362  
                                       u7800 1B70                                         u7720 1A78  
                                       u7640 18EA                                         u7561 1406  
                                       u7481 135E                                         u7801 1B6C  
                                       u7721 1A74                                         u7641 18E6  
                                       u7570 1444                                         u7490 1372  
                                       u7810 1B84                                         u7730 1AA2  
                                       u7650 18FA                                         u7571 1440  
                                       u7491 136E                                         u7811 1B80  
                                       u7731 1A9E                                         u7651 18F6  
                                       u7580 1456                                         u7820 1B9E  
                                       u7740 1AC6                                         u7660 193E  
                                       u7900 2296                                         u7581 1452  
                                       u7821 1B9A                                         u7741 1AC2  
                                       u7661 193A                                         u7901 2292  
                                       u7590 1466                                         u7830 1BE6  
                                       u7750 1ADC                                         u7670 1950  
                                       u7910 22B6                                         u7591 1462  
                                       u7831 1BE2                                         u7751 1AD8  
                                       u7671 194C                                         u7911 22B2  
                                       u7840 1C16                                         u7760 1AFA  
                                       u7680 1960                                         u7920 22C6  
                                       u7841 1C12                                         u7761 1AF6  
                                       u7681 195C                                         u7921 22C2  
                                       u7850 1C44                                         u7770 1B1A  
                                       u7690 19A0                                         u7930 1C6A  
                                       u7851 1C40                                         u7771 1B16  
                                       u7691 199C                                         u7931 1C66  
                                       u7780 1B2C                                         u7860 21F8  
                                       u7940 1C78                                         u7781 1B28  
                                       u7861 21F4                                         u7941 1C74  
                                       u7790 1B5A                                         u7870 222C  
                                       u7950 1CD4                                         u7791 1B56  
                                       u7951 1CD0                                         u7880 225A  
                                       u7960 1D2A                                         u7881 2256  
                                       u7961 1D26                                         u7890 226E  
                                       u7970 1D74                                         u7891 226A  
                                       u7875 2222                                         u7971 1D70  
                                       u7980 1D92                                         u7981 1D8E  
                                       u7990 1DA2                                         u7991 1D9E  
                                       _TMR2 0FCC                    __end_of_Interrupt_Manager 18BE  
                                       _led1 007B                                         _main 267A  
                           __end_of_CCP1_ISR 28F4                             __end_of_CCP2_ISR 28F0  
                                       fsr2h 0FDA                                         indf2 0FDF  
                                       fsr1l 0FE1                                         fsr2l 0FD9  
                                       btemp 007C                       __end_of_led_initialize 260E  
                           __end_of_I2C_init 2790                                         prodl 0FF3  
                                       start 000E                              ___fldiv@new_exp 0023  
                              ?_led_turn_off 000E                                 ___param_bank 0000  
                     ?_gpio_pin_toggle_logic 0004                         _gpio_pin_write_logic 20A6  
                                ?_TIMER0_ISR 0001                                  ?_TIMER1_ISR 0001  
                                ?_TIMER2_ISR 0001                                  ?_TIMER3_ISR 0001  
                           __end_of_INT0_ISR 28E8                             __end_of_INT1_ISR 28E4  
                           __end_of_INT2_ISR 28E0                                _EUSART_RX_ISR 28F8  
                              ___fltol@sign1 0043                                _EUSART_TX_ISR 28E8  
                            __end_of___fladd 14C8                                        ?_main 0001  
                            __end_of___fldiv 1C58                                        _EEADR 0FA9  
                            __end_of___fltol 22E8                                        i2l620 28EE  
                                      i2l616 28F2                                        i2l458 28F6  
                                      i2l971 28E6                                        i2l981 28DE  
                                      i2l976 28E2                                        i2l992 289E  
                                      _RCREG 0FAE                                        _TMR0H 0FD7  
                                      _TMR1H 0FCF                                        _TMR0L 0FD6  
                                      _TMR1L 0FCE                                        _TMR3H 0FB3  
                                      _TMR3L 0FB2                                        _SPBRG 0FAF  
                                      _PORTA 0F80                                        _PORTB 0F81  
                                      _PORTC 0F82                                        _PORTD 0F83  
                                      _PORTE 0F84                                        _TRISA 0F92  
                                      _TRISB 0F93                                        _TRISC 0F94  
                                      _TRISD 0F95                                        _TRISE 0F96  
                                      _TXREG 0FAD                                        _lcd_1 00D7  
                                      _lcd_2 00CD                                        pclath 0FFA  
                                      pclatu 0FFB                                        tablat 0FF5  
                                      ttemp5 007D                                        ttemp6 0080  
                                      ttemp7 0084                                        status 0FD8  
                                      wtemp8 007D                              ?_led_initialize 0012  
                             ??_led_turn_off 0010                              __initialization 2414  
                               __end_of_main 26D2                        ?_gpio_pin_write_logic 0004  
                                  ??_ADC_ISR 0001                               ?_EUSART_RX_ISR 0001  
                             ?_EUSART_TX_ISR 0001                                _lat_registers 00B9  
                                     ??_main 0048                                __activetblptr 0003  
                           led_turn_on@F3053 0075                                    ??_RB4_ISR 0001  
                                  ??_RB5_ISR 0001                                    ??_RB6_ISR 0001  
                                  ??_RB7_ISR 0001       _I2c_Write_Collision_Interrupt_Hundeler 0090  
                                     _ADRESH 0FC4                                       _EEADRH 0FAA  
                                     _ADRESL 0FC3                                       _EEDATA 0FA8  
                                     _CCPR1H 0FBF                                       _CCPR2H 0FBC  
                                     _CCPR1L 0FBE                                       _CCPR2L 0FBB  
                                     _EECON2 0FA7                          Relay_Turn_OFF@F3052 0070  
                                     i2l1003 2884                                       i2l1101 1642  
                                     i2l1014 286A                                       i2l1111 1772  
                                     i2l1103 1686     __end_of_MSSP_I2C_Interrupt_Configuration 271C  
         ??_MSSP_I2C_Interrupt_Configuration 0006            ?_MSSP_I2C_Interrupt_Configuration 0004  
           _MSSP_I2C_Interrupt_Configuration 26D2                                       i2l1025 2850  
                                     i2l1121 1812                                       i2l1113 1792  
                                     i2l1105 16CA                                       i2l1123 1832  
                                     i2l1115 17B2                                       i2l1107 170E  
                                     i2l1132 18B2                                       i2l1125 1852  
                                     i2l1117 17D2                                       i2l1109 1752  
                                     i2l1127 1872                                       i2l1119 17F2  
                                     i2l1129 1892                                       i2l1091 1512  
                                     i2l1253 28B6                                       i2l1093 1532  
                                     i2l1174 28C2                                       i2l1511 274A  
                                     i2l1095 1576                                       i2l1512 2754  
                                     i2l1097 15BA                                       i2l1089 14F2  
                                     i2l1515 2756                                       i2l1099 15FE  
                                     i2l1508 2752                                       i2l1348 28AA  
                                     i2l1509 273C                                       i2l1293 28CA  
                                     i2l3311 28E4                                       i2l1650 281A  
                                     i2l3251 28F4                                       i2l3323 28DC  
                                     i2l3331 288A                                       i2l1476 28EA  
                                     i2l1485 28F8                                       i2l3317 28E0  
                                     i2l1654 28DA                                       i2l3255 28F0  
                                     i2l3423 27EE                                       i2l3351 2884  
                                     i2l3343 286E                                       i2l3425 27F0  
                                     i2l3337 289E                                       i2l3329 2888  
                                     i2l3345 2870                                       i2l3259 28EC  
                                     i2l3427 2802                                       i2l3371 283A  
                                     i2l3365 286A                                       i2l3357 2854  
                                     i2l3373 283C                                       i2l3359 2856  
                                     i2l3385 28B8                                       i2l2931 271C  
                                     i2l3379 2850                                       i2l3387 28BA  
                                     i2l2933 272C                                       i2l3389 28BE  
                                     i2l7101 1520                                       i2l2935 273A  
                                     i2l7111 156C                                       i2l7103 152E  
                                     i2l7201 17E0                                       i2l7121 15B0  
                                     i2l7113 1570                                       i2l7105 1540  
                                     i2l6251 28AC                                       i2l7211 182E  
                                     i2l7203 17EE                                       i2l7131 15F4  
                                     i2l7123 15B4                                       i2l7115 1584  
                                     i2l7107 154E                                       i2l7221 1880  
                                     i2l7213 1840                                       i2l7205 1800  
                                     i2l7141 1638                                       i2l7133 15F8  
                                     i2l7125 15C8                                       i2l7117 1592  
                                     i2l7109 155C                                       i2l6263 28E8  
                                     i2l6255 28C4                                       i2l7223 188E  
                                     i2l7215 184E                                       i2l7207 180E  
                                     i2l7151 167C                                       i2l7143 163C  
                                     i2l7135 160C                                       i2l7127 15D6  
                                     i2l7119 15A0                                       i2l6281 28D8  
                                     i2l7225 18A0                                       i2l7217 1860  
                                     i2l7209 1820                                       i2l7161 16C0  
                                     i2l7153 1680                                       i2l7145 1650  
                                     i2l7137 161A                                       i2l7129 15E4  
                                     i2l6259 28A0                                       i2l7227 18AE  
                                     i2l7219 186E                                       i2l7171 1704  
                                     i2l7163 16C4                                       i2l7155 1694  
                                     i2l7147 165E                                       i2l7139 1628  
                                     i2l7091 14D2                                       i2l6269 28F8  
                                     i2l7181 1748                                       i2l7173 1708  
                                     i2l7165 16D8                                       i2l7157 16A2  
                                     i2l7149 166C                                       i2l7093 14E0  
                                     i2l7191 178E                                       i2l7183 174C  
                                     i2l7175 171C                                       i2l7167 16E6  
                                     i2l7159 16B0                                       i2l7095 14EE  
                                     i2l7193 17A0                                       i2l7185 1760  
                                     i2l7177 172A                                       i2l7169 16F4  
                                     i2l7097 1500                                       i2l7195 17AE  
                                     i2l7187 176E                                       i2l7179 1738  
                                     i2l7099 150E                                       i2l7197 17C0  
                                     i2l7189 1780                                       i2l7199 17CE  
                                     _SPBRGH 0FB0                                       _SSPADD 0FC8  
                                     _SSPBUF 0FC9                             __end_of___xxtofl 1E0C  
                      __end_of_MSSP_I2C_Init 1F62                  _RB6_Interrupt_Handular_HIGH 0054  
                                  ??___fladd 0033                                    ??___fldiv 001A  
                                  ??___fltol 003F                                       clear_0 247A  
                                     clear_1 2486                        led_initialize@pin_obj 0016  
                                     isa$std 0001      _I2c_Receive_Overflow_Interrupt_Hundeler 008E  
                                  ?_CCP1_ISR 0001                                 __pdataCOMRAM 0077  
                                  ?_CCP2_ISR 0001                                 __mediumconst 0000  
                                  ?_I2C_init 0001                                       tblptrh 0FF7  
                                     tblptrl 0FF6                                       tblptru 0FF8  
                         _MSSP_I2C_Clock_CFG 22E8                             _timer2_preloaded 006F  
                               ___xxtofl@arg 000E                                 ___xxtofl@exp 000D  
                               ___xxtofl@val 0004                          ?_MSSP_I2C_Clock_CFG 0045  
                                 __accesstop 0080                      __end_of__initialization 248C  
                                  ?_INT0_ISR 0001                                    ?_INT1_ISR 0001  
                                  ?_INT2_ISR 0001                                ___rparam_used 0001  
                                 ___fltol@f1 003B                            led_initialize@led 0012  
                          led_initialize@ret 0015                       ??_gpio_pin_write_logic 0007  
                             __pcstackCOMRAM 0001                       _MSSP_I2C_Mode_GPIO_CFG 28CC  
                               __pidataBANK0 27C0                                 __pidataBANK1 2790  
                              RB4_ISR@source 0001                              ??_EUSART_RX_ISR 0001  
                            ??_EUSART_TX_ISR 0001                         ??_MSSP_I2C_Clock_CFG 0047  
    MSSP_I2C_Interrupt_Configuration@i2c_obj 0004                                   ??_CCP1_ISR 0001  
                                 ??_CCP2_ISR 0001                           _MSSP_I2C_Slave_CFG 281C  
                       __end_of_led_turn_off 2516                                   ??_I2C_init 0048  
                    _CCP1_Interrupt_Hundeler 006A                                RB5_ISR@source 0001  
          CCP_Captured_Mode_Read_Value@F3127 0066                   _RB6_Interrupt_Handular_LOW 0052  
                    _INT0_Interrupt_Handular 0062                          ?_MSSP_I2C_Slave_CFG 0004  
                                 __pbssBANK0 0080                                   ??_INT0_ISR 0001  
                                 ??_INT1_ISR 0001                  convert_uint_16_string@F3199 0080  
                                 ??_INT2_ISR 0001                      ??_gpio_pin_toggle_logic 0006  
                      Relay_Initialize@F3042 0072                                RB6_ISR@source 0001  
                          led_turn_off@F3058 0074                                 ??_TIMER0_ISR 0001  
                               ??_TIMER1_ISR 0001                                 ??_TIMER2_ISR 0001  
                              led_toggle@led 000B                                 ??_TIMER3_ISR 0001  
                              led_toggle@ret 000E                         ??_MSSP_I2C_Slave_CFG 0006  
                                    _ADC_ISR 28F4                              led_toggle@F3063 0073  
                    _TMR1_Interrupt_Hundeler 009E                                      _RB4_ISR 2886  
                                    _RB5_ISR 286C                                      _RB6_ISR 2852  
                                    _RB7_ISR 2838                                    ?___xxtofl 0004  
                              ?_MSSP_I2C_ISR 0001                                      i2u97_40 272C  
                                    i2u97_41 2728                                      i2u98_40 273A  
                                    i2u98_41 2736                                      i2u99_40 274A  
                                    i2u99_41 2746                                RB7_ISR@source 0001  
                           ??_led_initialize 0014                                   _led_toggle 2516  
                             _tris_registers 00C3                           __end_of_TIMER0_ISR 28C4  
                         __end_of_TIMER1_ISR 28B8                           __end_of_TIMER2_ISR 28CC  
                         __end_of_TIMER3_ISR 28AC                                      _i2c_obj 00A0  
                          ??_MSSP_I2C_BC_ISR 0001                                      __Hparam 0000  
                                    __Lparam 0000                                      ___fladd 1008  
                                    ___fldiv 18BE                                      ___fltol 21E2  
                               __psmallconst 1000                   __end_of_gpio_pin_intialize 267A  
                                    __pcinit 2414                                      __ramtop 1000  
                  MSSP_I2C_Slave_CFG@i2c_obj 0004                                      __ptext0 267A  
                                    __ptext1 2496                                      __ptext2 2516  
                                    __ptext3 2382                                      __ptext4 2592  
                                    __ptext5 260E                                      __ptext6 20A6  
                                    __ptext7 1F62                                      __ptext8 2758  
                                    __ptext9 1E0C                                    _T0CONbits 0FD5  
                                  _T1CONbits 0FCD                               ??_MSSP_I2C_ISR 0001  
                                  _T2CONbits 0FCA                                   ??___xxtofl 0008  
                                  _T3CONbits 0FB1                               __pintcode_body 14C8  
                       end_of_initialization 248C                                      int_func 14C8  
                      gpio_pin_intialize@ret 0011                          led_turn_off@pin_obj 0012  
                                  _RCSTAbits 0FAB                                      postdec1 0FE5  
                                    postdec2 0FDD                                      postinc0 0FEE  
                                    postinc2 0FDE                                    _PORTBbits 0F81  
                          led_toggle@pin_obj 000F                                  ___fladd@grs 003A  
       __end_of_gpio_pin_direction_intialize 20A6                 _gpio_pin_direction_intialize 1F62  
                              ___xxtofl@sign 000C                                    _TRISCbits 0F94  
                                ___fldiv@grs 0025                                  ___fldiv@rem 001E  
                                ?_led_toggle 000B                                  _CCP1CONbits 0FBD  
                                _CCP2CONbits 0FBA                                    _TXSTAbits 0FAC  
                _RB4_Interrupt_Handular_HIGH 005C                      ?_MSSP_I2C_Mode_GPIO_CFG 0001  
                               _led_turn_off 2496                  _RB7_Interrupt_Handular_HIGH 0050  
                                _BAUDCONbits 0FB8                                __pidataCOMRAM 28D2  
                             _timer0_preload 004A                               _timer1_preload 008A  
                        start_initialization 2414                               _timer3_preload 0086  
              ?_gpio_pin_direction_intialize 0004               __end_of_MSSP_I2C_Mode_GPIO_CFG 28D2  
                            led_turn_off@led 000E                              led_turn_off@ret 0011  
                         Relay_Turn_ON@F3047 0071                         __end_of_MSSP_I2C_ISR 281C  
              __end_of_gpio_pin_toggle_logic 2414      _EUSART_Overrun_error_Interrupt_Hundeler 0092  
                                __pdataBANK0 00AF                                  __pdataBANK1 0100  
                                   ?_ADC_ISR 0001                        __end_of_EUSART_RX_ISR 28FA  
                      __end_of_EUSART_TX_ISR 28EC                       _ADC_Interrupt_Handular 006C  
                                  ___fladd@a 002F                                    ___fladd@b 002B  
                       MSSP_I2C_Init@i2c_obj 00DD                                    ___fldiv@a 0016  
                                  ___fldiv@b 0012                                     ?_RB4_ISR 0001  
                                   ?_RB5_ISR 0001                                     ?_RB6_ISR 0001  
                                   ?_RB7_ISR 0001                                  __pbssCOMRAM 0048  
                              __pcstackBANK0 00DD                   _RB5_Interrupt_Handular_LOW 0056  
                            _MSSP_I2C_BC_ISR 28D8                      _INT2_Interrupt_Handular 005E  
             gpio_pin_write_logic@pin_config 0004              gpio_pin_direction_intialize@ret 000C  
                              _MSSP_I2C_Init 1E0C                 _EUSART_TX_Interrupt_Hundeler 0098  
                                  __pintcode 0008                                     ?___fladd 002B  
                                   ?___fldiv 0012                                     ?___fltol 003B  
                  gpio_pin_write_logic@logic 0006                      _TMR0_Interrupt_Hundeler 004C  
                    _TMR3_Interrupt_Hundeler 009A                                  __smallconst 1000  
                                   _CCP1_ISR 28F0                                     _CCP2_ISR 28EC  
                                   _I2C_init 2758                           _gpio_pin_intialize 260E  
                  MSSP_I2C_Clock_CFG@i2c_obj 0045               ??_gpio_pin_direction_intialize 0006  
                                   _INT0_ISR 28E4                                     _INT1_ISR 28E0  
                                   _INT2_ISR 28DC                                     _RB4_Flag 007A  
                                   _RB5_Flag 0079                                     _RB6_Flag 0078  
                                   _RB7_Flag 0077                          ?_gpio_pin_intialize 000E  
                                   _PIE1bits 0F9D                                     _PIE2bits 0FA0  
                             ?_MSSP_I2C_Init 00DD                                     i2u150_48 2808  
                                   i2u150_49 281A                                     i2u145_40 289A  
                                   i2u145_41 2896                                     i2u146_40 2880  
                                   i2u146_41 287C                                     i2u147_40 2866  
                                   i2u147_41 2862                                     i2u148_40 284C  
                                   i2u148_41 2848                                     i2u149_40 2802  
                                   i2u149_41 27FE                                     _PIR1bits 0F9E  
                                   _PIR2bits 0FA1                                     i2u640_40 14E0  
                                   i2u640_41 14DC                                     i2u641_40 14EE  
                                   i2u641_41 14EA                                     i2u650_40 1584  
                                   i2u642_40 1500                                     i2u650_41 1580  
                                   i2u642_41 14FC                                     i2u651_40 1592  
                                   i2u643_40 150E                                     i2u651_41 158E  
                                   i2u643_41 150A                                     i2u660_40 1628  
                                   i2u652_40 15A0                                     i2u644_40 1520  
                                   i2u660_41 1624                                     i2u652_41 159C  
                                   i2u644_41 151C                                     i2u661_40 1638  
                                   i2u653_40 15B0                                     i2u645_40 152E  
                                   i2u661_41 1634                                     i2u653_41 15AC  
                                   i2u645_41 152A                                     i2u670_40 16D8  
                                   i2u662_40 1650                                     i2u654_40 15C8  
                                   i2u646_40 1540                                     i2u670_41 16D4  
                                   i2u662_41 164C                                     i2u654_41 15C4  
                                   i2u646_41 153C                                     i2u671_40 16E6  
                                   i2u663_40 165E                                     i2u655_40 15D6  
                                   i2u647_40 154E                                     i2u671_41 16E2  
                                   i2u663_41 165A                                     i2u655_41 15D2  
                                   i2u647_41 154A                                     i2u680_40 1780  
                                   i2u672_40 16F4                                     i2u664_40 166C  
                                   i2u656_40 15E4                                     i2u648_40 155C  
                                   i2u680_41 177C                                     i2u672_41 16F0  
                                   i2u664_41 1668                                     i2u656_41 15E0  
                                   i2u648_41 1558                                     i2u681_40 178E  
                                   i2u673_40 1704                                     i2u665_40 167C  
                                   i2u657_40 15F4                                     i2u649_40 156C  
                                   i2u681_41 178A                                     i2u673_41 1700  
                                   i2u665_41 1678                                     i2u657_41 15F0  
                                   i2u649_41 1568                                     i2u690_40 1820  
                                   i2u682_40 17A0                                     i2u674_40 171C  
                                   i2u666_40 1694                                     i2u658_40 160C  
                                   i2u690_41 181C                                     i2u682_41 179C  
                                   i2u674_41 1718                                     i2u666_41 1690  
                                   i2u658_41 1608                                     i2u691_40 182E  
                                   i2u683_40 17AE                                     i2u675_40 172A  
                                   i2u667_40 16A2                                     i2u659_40 161A  
                                   i2u691_41 182A                                     i2u683_41 17AA  
                                   i2u675_41 1726                                     i2u667_41 169E  
                                   i2u659_41 1616                                     i2u692_40 1840  
                                   i2u684_40 17C0                                     i2u676_40 1738  
                                   i2u668_40 16B0                                     i2u692_41 183C  
                                   i2u684_41 17BC                                     i2u676_41 1734  
                                   i2u668_41 16AC                                     i2u693_40 184E  
                                   i2u685_40 17CE                                     i2u677_40 1748  
                                   i2u669_40 16C0                                     i2u693_41 184A  
                                   i2u685_41 17CA                                     i2u677_41 1744  
                                   i2u669_41 16BC                                     i2u694_40 1860  
                                   i2u686_40 17E0                                     i2u678_40 1760  
                                   i2u694_41 185C                                     i2u686_41 17DC  
                                   i2u678_41 175C                                     i2u695_40 186E  
                                   i2u687_40 17EE                                     i2u679_40 176E  
                                   i2u695_41 186A                                     i2u687_41 17EA  
                                   i2u679_41 176A                                     i2u696_40 1880  
                                   i2u688_40 1800                                     i2u696_41 187C  
                                   i2u688_41 17FC                                     i2u697_40 188E  
                                   i2u689_40 180E                                     i2u697_41 188A  
                                   i2u689_41 180A                                     i2u698_40 18A0  
                                   i2u698_41 189C                                     i2u699_40 18AE  
                                   i2u699_41 18AA                            _keypad_btn_values 0100  
           CCP1_Compare_Mode_Set_Value@F3148 0064                                   _ADCON0bits 0FC2  
                                 _ADCON1bits 0FC1                                   _ADCON2bits 0FC0  
                    __end_of_MSSP_I2C_BC_ISR 28DC                         ??_gpio_pin_intialize 0010  
                    gpio_pin_write_logic@ret 000D                                  _INTCON2bits 0FF1  
                                _INTCON3bits 0FF0                                    copy_data0 2428  
                                  copy_data1 2448                                    copy_data2 2468  
                               ??_led_toggle 000D                                   _EECON1bits 0FA6  
                           MSSP_I2C_Init@ret 00DF                                     __Hrparam 0000  
                                   __Lrparam 0000                           __end_of_led_toggle 2592  
                                   ___xxtofl 1C58                                 _MSSP_I2C_ISR 27EE  
                                   __ptext10 281C                                     __ptext11 28CC  
                                   __ptext20 28C4                                     __ptext12 26D2  
                                   __ptext21 28AC                                     __ptext13 22E8  
                                   __ptext30 28DC                                     __ptext22 28B8  
                                   __ptext14 1C58                                     __ptext31 28E0  
                                   __ptext23 2838                                     __ptext15 21E2  
                                   __ptext32 28E4                                     __ptext24 2852  
                                   __ptext16 18BE                                     __ptext33 28E8  
                                   __ptext25 286C                                     __ptext17 1008  
                                   __ptext34 28F8                                     __ptext26 2886  
                                   __ptext35 28EC                                     __ptext27 27EE  
                                   __ptext19 28A0                                     __ptext36 28F0  
                                   __ptext28 271C                                     __ptext37 28F4  
                                   __ptext29 28D8                                     __ptext38 0000  
                            ??_MSSP_I2C_Init 0048                 gpio_pin_intialize@pin_config 000E  
                _RB5_Interrupt_Handular_HIGH 0058                                     isa$xinst 0000  
                                   int$flags 007C       fp__MSSP_I2C_Defualt_Interrupt_Hundeler 0000  
__end_of_MSSP_I2C_Defualt_Interrupt_Hundeler 2758        ??_MSSP_I2C_Defualt_Interrupt_Hundeler 0001  
       ?_MSSP_I2C_Defualt_Interrupt_Hundeler 0001               _I2C_Defualt_Interrupt_Hundeler 0048  
        _MSSP_I2C_Defualt_Interrupt_Hundeler 271C                             ?_MSSP_I2C_BC_ISR 0001  
                                 _INTCONbits 0FF2                 __end_of_gpio_pin_write_logic 21E2  
                                   intlevel2 0000              gpio_pin_toggle_logic@pin_config 0004  
                                _slave2_data 006E       gpio_pin_direction_intialize@pin_config 0004  
                 __end_of_MSSP_I2C_Clock_CFG 2382                        _gpio_pin_toggle_logic 2382  
                                 _TIMER0_ISR 28B8                                   _TIMER1_ISR 28AC  
                                 _TIMER2_ISR 28C4                                   _TIMER3_ISR 28A0  
     _EUSART_Framig_error_Interrupt_Hundeler 0094                               _port_registers 00AF  
                 _RB4_Interrupt_Handular_LOW 005A                                  _SSPCON1bits 0FC6  
                                _SSPCON2bits 0FC5                      _CCP2_Interrupt_Hundeler 0068  
                              ___fladd@signs 0037                      _INT1_Interrupt_Handular 0060  
                 _RB7_Interrupt_Handular_LOW 004E                                 ___fladd@aexp 0038  
                               ___fladd@bexp 0039                            _Interrupt_Manager 0008  
                             _led_initialize 2592                 _EUSART_RX_Interrupt_Hundeler 0096  
                         ?_Interrupt_Manager 0001  
